
bomb:     file format elf32-i386


Disassembly of section .init:

08048710 <_init>:
 8048710:	55                   	push   %ebp
 8048711:	89 e5                	mov    %esp,%ebp
 8048713:	53                   	push   %ebx
 8048714:	83 ec 04             	sub    $0x4,%esp
 8048717:	e8 00 00 00 00       	call   804871c <_init+0xc>
 804871c:	5b                   	pop    %ebx
 804871d:	81 c3 cc 29 00 00    	add    $0x29cc,%ebx
 8048723:	8b 93 fc ff ff ff    	mov    -0x4(%ebx),%edx
 8048729:	85 d2                	test   %edx,%edx
 804872b:	74 05                	je     8048732 <_init+0x22>
 804872d:	e8 5e 00 00 00       	call   8048790 <__gmon_start__@plt>
 8048732:	e8 69 02 00 00       	call   80489a0 <frame_dummy>
 8048737:	e8 34 19 00 00       	call   804a070 <__do_global_ctors_aux>
 804873c:	58                   	pop    %eax
 804873d:	5b                   	pop    %ebx
 804873e:	c9                   	leave  
 804873f:	c3                   	ret    

Disassembly of section .plt:

08048740 <__errno_location@plt-0x10>:
 8048740:	ff 35 ec b0 04 08    	pushl  0x804b0ec
 8048746:	ff 25 f0 b0 04 08    	jmp    *0x804b0f0
 804874c:	00 00                	add    %al,(%eax)
	...

08048750 <__errno_location@plt>:
 8048750:	ff 25 f4 b0 04 08    	jmp    *0x804b0f4
 8048756:	68 00 00 00 00       	push   $0x0
 804875b:	e9 e0 ff ff ff       	jmp    8048740 <_init+0x30>

08048760 <sprintf@plt>:
 8048760:	ff 25 f8 b0 04 08    	jmp    *0x804b0f8
 8048766:	68 08 00 00 00       	push   $0x8
 804876b:	e9 d0 ff ff ff       	jmp    8048740 <_init+0x30>

08048770 <connect@plt>:
 8048770:	ff 25 fc b0 04 08    	jmp    *0x804b0fc
 8048776:	68 10 00 00 00       	push   $0x10
 804877b:	e9 c0 ff ff ff       	jmp    8048740 <_init+0x30>

08048780 <signal@plt>:
 8048780:	ff 25 00 b1 04 08    	jmp    *0x804b100
 8048786:	68 18 00 00 00       	push   $0x18
 804878b:	e9 b0 ff ff ff       	jmp    8048740 <_init+0x30>

08048790 <__gmon_start__@plt>:
 8048790:	ff 25 04 b1 04 08    	jmp    *0x804b104
 8048796:	68 20 00 00 00       	push   $0x20
 804879b:	e9 a0 ff ff ff       	jmp    8048740 <_init+0x30>

080487a0 <getenv@plt>:
 80487a0:	ff 25 08 b1 04 08    	jmp    *0x804b108
 80487a6:	68 28 00 00 00       	push   $0x28
 80487ab:	e9 90 ff ff ff       	jmp    8048740 <_init+0x30>

080487b0 <write@plt>:
 80487b0:	ff 25 0c b1 04 08    	jmp    *0x804b10c
 80487b6:	68 30 00 00 00       	push   $0x30
 80487bb:	e9 80 ff ff ff       	jmp    8048740 <_init+0x30>

080487c0 <fgets@plt>:
 80487c0:	ff 25 10 b1 04 08    	jmp    *0x804b110
 80487c6:	68 38 00 00 00       	push   $0x38
 80487cb:	e9 70 ff ff ff       	jmp    8048740 <_init+0x30>

080487d0 <__libc_start_main@plt>:
 80487d0:	ff 25 14 b1 04 08    	jmp    *0x804b114
 80487d6:	68 40 00 00 00       	push   $0x40
 80487db:	e9 60 ff ff ff       	jmp    8048740 <_init+0x30>

080487e0 <read@plt>:
 80487e0:	ff 25 18 b1 04 08    	jmp    *0x804b118
 80487e6:	68 48 00 00 00       	push   $0x48
 80487eb:	e9 50 ff ff ff       	jmp    8048740 <_init+0x30>

080487f0 <strtol@plt>:
 80487f0:	ff 25 1c b1 04 08    	jmp    *0x804b11c
 80487f6:	68 50 00 00 00       	push   $0x50
 80487fb:	e9 40 ff ff ff       	jmp    8048740 <_init+0x30>

08048800 <fflush@plt>:
 8048800:	ff 25 20 b1 04 08    	jmp    *0x804b120
 8048806:	68 58 00 00 00       	push   $0x58
 804880b:	e9 30 ff ff ff       	jmp    8048740 <_init+0x30>

08048810 <socket@plt>:
 8048810:	ff 25 24 b1 04 08    	jmp    *0x804b124
 8048816:	68 60 00 00 00       	push   $0x60
 804881b:	e9 20 ff ff ff       	jmp    8048740 <_init+0x30>

08048820 <__ctype_b_loc@plt>:
 8048820:	ff 25 28 b1 04 08    	jmp    *0x804b128
 8048826:	68 68 00 00 00       	push   $0x68
 804882b:	e9 10 ff ff ff       	jmp    8048740 <_init+0x30>

08048830 <bcopy@plt>:
 8048830:	ff 25 2c b1 04 08    	jmp    *0x804b12c
 8048836:	68 70 00 00 00       	push   $0x70
 804883b:	e9 00 ff ff ff       	jmp    8048740 <_init+0x30>

08048840 <fopen@plt>:
 8048840:	ff 25 30 b1 04 08    	jmp    *0x804b130
 8048846:	68 78 00 00 00       	push   $0x78
 804884b:	e9 f0 fe ff ff       	jmp    8048740 <_init+0x30>

08048850 <alarm@plt>:
 8048850:	ff 25 34 b1 04 08    	jmp    *0x804b134
 8048856:	68 80 00 00 00       	push   $0x80
 804885b:	e9 e0 fe ff ff       	jmp    8048740 <_init+0x30>

08048860 <strcpy@plt>:
 8048860:	ff 25 38 b1 04 08    	jmp    *0x804b138
 8048866:	68 88 00 00 00       	push   $0x88
 804886b:	e9 d0 fe ff ff       	jmp    8048740 <_init+0x30>

08048870 <printf@plt>:
 8048870:	ff 25 3c b1 04 08    	jmp    *0x804b13c
 8048876:	68 90 00 00 00       	push   $0x90
 804887b:	e9 c0 fe ff ff       	jmp    8048740 <_init+0x30>

08048880 <strcasecmp@plt>:
 8048880:	ff 25 40 b1 04 08    	jmp    *0x804b140
 8048886:	68 98 00 00 00       	push   $0x98
 804888b:	e9 b0 fe ff ff       	jmp    8048740 <_init+0x30>

08048890 <close@plt>:
 8048890:	ff 25 44 b1 04 08    	jmp    *0x804b144
 8048896:	68 a0 00 00 00       	push   $0xa0
 804889b:	e9 a0 fe ff ff       	jmp    8048740 <_init+0x30>

080488a0 <fprintf@plt>:
 80488a0:	ff 25 48 b1 04 08    	jmp    *0x804b148
 80488a6:	68 a8 00 00 00       	push   $0xa8
 80488ab:	e9 90 fe ff ff       	jmp    8048740 <_init+0x30>

080488b0 <gethostname@plt>:
 80488b0:	ff 25 4c b1 04 08    	jmp    *0x804b14c
 80488b6:	68 b0 00 00 00       	push   $0xb0
 80488bb:	e9 80 fe ff ff       	jmp    8048740 <_init+0x30>

080488c0 <sleep@plt>:
 80488c0:	ff 25 50 b1 04 08    	jmp    *0x804b150
 80488c6:	68 b8 00 00 00       	push   $0xb8
 80488cb:	e9 70 fe ff ff       	jmp    8048740 <_init+0x30>

080488d0 <puts@plt>:
 80488d0:	ff 25 54 b1 04 08    	jmp    *0x804b154
 80488d6:	68 c0 00 00 00       	push   $0xc0
 80488db:	e9 60 fe ff ff       	jmp    8048740 <_init+0x30>

080488e0 <sscanf@plt>:
 80488e0:	ff 25 58 b1 04 08    	jmp    *0x804b158
 80488e6:	68 c8 00 00 00       	push   $0xc8
 80488eb:	e9 50 fe ff ff       	jmp    8048740 <_init+0x30>

080488f0 <gethostbyname@plt>:
 80488f0:	ff 25 5c b1 04 08    	jmp    *0x804b15c
 80488f6:	68 d0 00 00 00       	push   $0xd0
 80488fb:	e9 40 fe ff ff       	jmp    8048740 <_init+0x30>

08048900 <exit@plt>:
 8048900:	ff 25 60 b1 04 08    	jmp    *0x804b160
 8048906:	68 d8 00 00 00       	push   $0xd8
 804890b:	e9 30 fe ff ff       	jmp    8048740 <_init+0x30>

Disassembly of section .text:

08048910 <_start>:
 8048910:	31 ed                	xor    %ebp,%ebp
 8048912:	5e                   	pop    %esi
 8048913:	89 e1                	mov    %esp,%ecx
 8048915:	83 e4 f0             	and    $0xfffffff0,%esp
 8048918:	50                   	push   %eax
 8048919:	54                   	push   %esp
 804891a:	52                   	push   %edx
 804891b:	68 00 a0 04 08       	push   $0x804a000
 8048920:	68 10 a0 04 08       	push   $0x804a010
 8048925:	51                   	push   %ecx
 8048926:	56                   	push   %esi
 8048927:	68 c4 89 04 08       	push   $0x80489c4
 804892c:	e8 9f fe ff ff       	call   80487d0 <__libc_start_main@plt>
 8048931:	f4                   	hlt    
 8048932:	90                   	nop
 8048933:	90                   	nop
 8048934:	90                   	nop
 8048935:	90                   	nop
 8048936:	90                   	nop
 8048937:	90                   	nop
 8048938:	90                   	nop
 8048939:	90                   	nop
 804893a:	90                   	nop
 804893b:	90                   	nop
 804893c:	90                   	nop
 804893d:	90                   	nop
 804893e:	90                   	nop
 804893f:	90                   	nop

08048940 <__do_global_dtors_aux>:
 8048940:	55                   	push   %ebp
 8048941:	89 e5                	mov    %esp,%ebp
 8048943:	53                   	push   %ebx
 8048944:	83 ec 04             	sub    $0x4,%esp
 8048947:	80 3d e4 b8 04 08 00 	cmpb   $0x0,0x804b8e4
 804894e:	75 40                	jne    8048990 <__do_global_dtors_aux+0x50>
 8048950:	8b 15 e8 b8 04 08    	mov    0x804b8e8,%edx
 8048956:	b8 0c b0 04 08       	mov    $0x804b00c,%eax
 804895b:	2d 08 b0 04 08       	sub    $0x804b008,%eax
 8048960:	c1 f8 02             	sar    $0x2,%eax
 8048963:	8d 58 ff             	lea    -0x1(%eax),%ebx
 8048966:	39 da                	cmp    %ebx,%edx
 8048968:	73 1f                	jae    8048989 <__do_global_dtors_aux+0x49>
 804896a:	8d b6 00 00 00 00    	lea    0x0(%esi),%esi
 8048970:	8d 42 01             	lea    0x1(%edx),%eax
 8048973:	a3 e8 b8 04 08       	mov    %eax,0x804b8e8
 8048978:	ff 14 85 08 b0 04 08 	call   *0x804b008(,%eax,4)
 804897f:	8b 15 e8 b8 04 08    	mov    0x804b8e8,%edx
 8048985:	39 da                	cmp    %ebx,%edx
 8048987:	72 e7                	jb     8048970 <__do_global_dtors_aux+0x30>
 8048989:	c6 05 e4 b8 04 08 01 	movb   $0x1,0x804b8e4
 8048990:	83 c4 04             	add    $0x4,%esp
 8048993:	5b                   	pop    %ebx
 8048994:	5d                   	pop    %ebp
 8048995:	c3                   	ret    
 8048996:	8d 76 00             	lea    0x0(%esi),%esi
 8048999:	8d bc 27 00 00 00 00 	lea    0x0(%edi,%eiz,1),%edi

080489a0 <frame_dummy>:
 80489a0:	55                   	push   %ebp
 80489a1:	89 e5                	mov    %esp,%ebp
 80489a3:	83 ec 08             	sub    $0x8,%esp
 80489a6:	a1 10 b0 04 08       	mov    0x804b010,%eax
 80489ab:	85 c0                	test   %eax,%eax
 80489ad:	74 12                	je     80489c1 <frame_dummy+0x21>
 80489af:	b8 00 00 00 00       	mov    $0x0,%eax
 80489b4:	85 c0                	test   %eax,%eax
 80489b6:	74 09                	je     80489c1 <frame_dummy+0x21>
 80489b8:	c7 04 24 10 b0 04 08 	movl   $0x804b010,(%esp)
 80489bf:	ff d0                	call   *%eax
 80489c1:	c9                   	leave  
 80489c2:	c3                   	ret    
 80489c3:	90                   	nop

080489c4 <main>:
 80489c4:	8d 4c 24 04          	lea    0x4(%esp),%ecx
 80489c8:	83 e4 f0             	and    $0xfffffff0,%esp
 80489cb:	ff 71 fc             	pushl  -0x4(%ecx)
 80489ce:	55                   	push   %ebp
 80489cf:	89 e5                	mov    %esp,%ebp
 80489d1:	56                   	push   %esi
 80489d2:	53                   	push   %ebx
 80489d3:	51                   	push   %ecx
 80489d4:	83 ec 0c             	sub    $0xc,%esp
 80489d7:	8b 01                	mov    (%ecx),%eax
 80489d9:	8b 59 04             	mov    0x4(%ecx),%ebx
 80489dc:	83 f8 01             	cmp    $0x1,%eax
 80489df:	75 0c                	jne    80489ed <main+0x29>
 80489e1:	a1 c4 b8 04 08       	mov    0x804b8c4,%eax
 80489e6:	a3 f0 b8 04 08       	mov    %eax,0x804b8f0
 80489eb:	eb 65                	jmp    8048a52 <main+0x8e>
 80489ed:	83 f8 02             	cmp    $0x2,%eax
 80489f0:	75 42                	jne    8048a34 <main+0x70>
 80489f2:	8d 73 04             	lea    0x4(%ebx),%esi
 80489f5:	c7 44 24 04 c8 a0 04 	movl   $0x804a0c8,0x4(%esp)
 80489fc:	08 
 80489fd:	8b 06                	mov    (%esi),%eax
 80489ff:	89 04 24             	mov    %eax,(%esp)
 8048a02:	e8 39 fe ff ff       	call   8048840 <fopen@plt>
 8048a07:	a3 f0 b8 04 08       	mov    %eax,0x804b8f0
 8048a0c:	85 c0                	test   %eax,%eax
 8048a0e:	75 42                	jne    8048a52 <main+0x8e>
 8048a10:	8b 06                	mov    (%esi),%eax
 8048a12:	89 44 24 08          	mov    %eax,0x8(%esp)
 8048a16:	8b 03                	mov    (%ebx),%eax
 8048a18:	89 44 24 04          	mov    %eax,0x4(%esp)
 8048a1c:	c7 04 24 ca a0 04 08 	movl   $0x804a0ca,(%esp)
 8048a23:	e8 48 fe ff ff       	call   8048870 <printf@plt>
 8048a28:	c7 04 24 08 00 00 00 	movl   $0x8,(%esp)
 8048a2f:	e8 cc fe ff ff       	call   8048900 <exit@plt>
 8048a34:	8b 03                	mov    (%ebx),%eax
 8048a36:	89 44 24 04          	mov    %eax,0x4(%esp)
 8048a3a:	c7 04 24 e7 a0 04 08 	movl   $0x804a0e7,(%esp)
 8048a41:	e8 2a fe ff ff       	call   8048870 <printf@plt>
 8048a46:	c7 04 24 08 00 00 00 	movl   $0x8,(%esp)
 8048a4d:	e8 ae fe ff ff       	call   8048900 <exit@plt>
 8048a52:	e8 4e 09 00 00       	call   80493a5 <initialize_bomb>
 8048a57:	c7 04 24 4c a1 04 08 	movl   $0x804a14c,(%esp)
 8048a5e:	e8 6d fe ff ff       	call   80488d0 <puts@plt>
 8048a63:	c7 04 24 78 a1 04 08 	movl   $0x804a178,(%esp)
 8048a6a:	e8 61 fe ff ff       	call   80488d0 <puts@plt>
 8048a6f:	e8 1c 08 00 00       	call   8049290 <read_line>
 8048a74:	89 04 24             	mov    %eax,(%esp)
 8048a77:	e8 bd 04 00 00       	call   8048f39 <phase_1>
 8048a7c:	e8 70 06 00 00       	call   80490f1 <phase_defused>
 8048a81:	c7 04 24 a8 a1 04 08 	movl   $0x804a1a8,(%esp)
 8048a88:	e8 43 fe ff ff       	call   80488d0 <puts@plt>
 8048a8d:	e8 fe 07 00 00       	call   8049290 <read_line>
 8048a92:	89 04 24             	mov    %eax,(%esp)
 8048a95:	e8 a1 02 00 00       	call   8048d3b <phase_2>
 8048a9a:	e8 52 06 00 00       	call   80490f1 <phase_defused>
 8048a9f:	c7 04 24 01 a1 04 08 	movl   $0x804a101,(%esp)
 8048aa6:	e8 25 fe ff ff       	call   80488d0 <puts@plt>
 8048aab:	e8 e0 07 00 00       	call   8049290 <read_line>
 8048ab0:	89 04 24             	mov    %eax,(%esp)
 8048ab3:	e8 d9 03 00 00       	call   8048e91 <phase_3>
 8048ab8:	e8 34 06 00 00       	call   80490f1 <phase_defused>
 8048abd:	c7 04 24 1f a1 04 08 	movl   $0x804a11f,(%esp)
 8048ac4:	e8 07 fe ff ff       	call   80488d0 <puts@plt>
 8048ac9:	e8 c2 07 00 00       	call   8049290 <read_line>
 8048ace:	89 04 24             	mov    %eax,(%esp)
 8048ad1:	e8 43 03 00 00       	call   8048e19 <phase_4>
 8048ad6:	e8 16 06 00 00       	call   80490f1 <phase_defused>
 8048adb:	c7 04 24 d4 a1 04 08 	movl   $0x804a1d4,(%esp)
 8048ae2:	e8 e9 fd ff ff       	call   80488d0 <puts@plt>
 8048ae7:	e8 a4 07 00 00       	call   8049290 <read_line>
 8048aec:	89 04 24             	mov    %eax,(%esp)
 8048aef:	e8 a5 02 00 00       	call   8048d99 <phase_5>
 8048af4:	e8 f8 05 00 00       	call   80490f1 <phase_defused>
 8048af9:	c7 04 24 2e a1 04 08 	movl   $0x804a12e,(%esp)
 8048b00:	e8 cb fd ff ff       	call   80488d0 <puts@plt>
 8048b05:	e8 86 07 00 00       	call   8049290 <read_line>
 8048b0a:	89 04 24             	mov    %eax,(%esp)
 8048b0d:	e8 3b 01 00 00       	call   8048c4d <phase_6>
 8048b12:	e8 da 05 00 00       	call   80490f1 <phase_defused>
 8048b17:	b8 00 00 00 00       	mov    $0x0,%eax
 8048b1c:	83 c4 0c             	add    $0xc,%esp
 8048b1f:	59                   	pop    %ecx
 8048b20:	5b                   	pop    %ebx
 8048b21:	5e                   	pop    %esi
 8048b22:	5d                   	pop    %ebp
 8048b23:	8d 61 fc             	lea    -0x4(%ecx),%esp
 8048b26:	c3                   	ret    
 8048b27:	90                   	nop
 8048b28:	90                   	nop
 8048b29:	90                   	nop
 8048b2a:	90                   	nop
 8048b2b:	90                   	nop
 8048b2c:	90                   	nop
 8048b2d:	90                   	nop
 8048b2e:	90                   	nop
 8048b2f:	90                   	nop
08048b96 <fun7>:
 8048b96:	55                   	push   %ebp
 8048b97:	89 e5                	mov    %esp,%ebp
 8048b99:	53                   	push   %ebx
 8048b9a:	83 ec 08             	sub    $0x8,%esp
 8048b9d:	8b 5d 08             	mov    0x8(%ebp),%ebx
 8048ba0:	8b 4d 0c             	mov    0xc(%ebp),%ecx
 8048ba3:	b8 ff ff ff ff       	mov    $0xffffffff,%eax
 8048ba8:	85 db                	test   %ebx,%ebx
 8048baa:	74 35                	je     8048be1 <fun7+0x4b>
 8048bac:	8b 53 04             	mov    0x4(%ebx),%edx
 8048baf:	39 ca                	cmp    %ecx,%edx
 8048bb1:	7e 12                	jle    8048bc5 <fun7+0x2f>
 8048bb3:	89 4c 24 04          	mov    %ecx,0x4(%esp)
 8048bb7:	8b 03                	mov    (%ebx),%eax
 8048bb9:	89 04 24             	mov    %eax,(%esp)
 8048bbc:	e8 d5 ff ff ff       	call   8048b96 <fun7>
 8048bc1:	01 c0                	add    %eax,%eax
 8048bc3:	eb 1c                	jmp    8048be1 <fun7+0x4b>
 8048bc5:	b8 00 00 00 00       	mov    $0x0,%eax
 8048bca:	39 ca                	cmp    %ecx,%edx
 8048bcc:	74 13                	je     8048be1 <fun7+0x4b>
 8048bce:	89 4c 24 04          	mov    %ecx,0x4(%esp)
 8048bd2:	8b 43 08             	mov    0x8(%ebx),%eax
 8048bd5:	89 04 24             	mov    %eax,(%esp)
 8048bd8:	e8 b9 ff ff ff       	call   8048b96 <fun7>
 8048bdd:	8d 44 00 01          	lea    0x1(%eax,%eax,1),%eax
 8048be1:	83 c4 08             	add    $0x8,%esp
 8048be4:	5b                   	pop    %ebx
 8048be5:	5d                   	pop    %ebp
 8048be6:	c3                   	ret    

08048be7 <secret_phase>:
 8048be7:	55                   	push   %ebp
 8048be8:	89 e5                	mov    %esp,%ebp
 8048bea:	53                   	push   %ebx
 8048beb:	83 ec 14             	sub    $0x14,%esp
 8048bee:	e8 9d 06 00 00       	call   8049290 <read_line>
 8048bf3:	c7 44 24 08 0a 00 00 	movl   $0xa,0x8(%esp)
 8048bfa:	00 
 8048bfb:	c7 44 24 04 00 00 00 	movl   $0x0,0x4(%esp)
 8048c02:	00 
 8048c03:	89 04 24             	mov    %eax,(%esp)
 8048c06:	e8 e5 fb ff ff       	call   80487f0 <strtol@plt>
 8048c0b:	89 c3                	mov    %eax,%ebx
 8048c0d:	8d 40 fc             	lea    -0x4(%eax),%eax
 8048c10:	3d f6 03 00 00       	cmp    $0x3f6,%eax
 8048c15:	76 05                	jbe    8048c1c <secret_phase+0x35>
 8048c17:	e8 6c 05 00 00       	call   8049188 <explode_bomb>
 8048c1c:	89 5c 24 04          	mov    %ebx,0x4(%esp)
 8048c20:	c7 04 24 b0 b6 04 08 	movl   $0x804b6b0,(%esp)
 8048c27:	e8 6a ff ff ff       	call   8048b96 <fun7>
 8048c2c:	83 f8 01             	cmp    $0x1,%eax
 8048c2f:	74 05                	je     8048c36 <secret_phase+0x4f>
 8048c31:	e8 52 05 00 00       	call   8049188 <explode_bomb>
 8048c36:	c7 04 24 f8 a1 04 08 	movl   $0x804a1f8,(%esp)
 8048c3d:	e8 8e fc ff ff       	call   80488d0 <puts@plt>
 8048c42:	e8 aa 04 00 00       	call   80490f1 <phase_defused>
 8048c47:	83 c4 14             	add    $0x14,%esp
 8048c4a:	5b                   	pop    %ebx
 8048c4b:	5d                   	pop    %ebp
 8048c4c:	c3                   	ret    

08048c4d <phase_6>:
 8048c4d:	55                   	push   %ebp
 8048c4e:	89 e5                	mov    %esp,%ebp
 8048c50:	57                   	push   %edi
 8048c51:	56                   	push   %esi
 8048c52:	53                   	push   %ebx
 8048c53:	83 ec 3c             	sub    $0x3c,%esp
 8048c56:	8d 45 dc             	lea    -0x24(%ebp),%eax
 8048c59:	89 44 24 04          	mov    %eax,0x4(%esp)
 8048c5d:	8b 45 08             	mov    0x8(%ebp),%eax
 8048c60:	89 04 24             	mov    %eax,(%esp)
 8048c63:	e8 56 05 00 00       	call   80491be <read_six_numbers>
 8048c68:	bb 00 00 00 00       	mov    $0x0,%ebx
 8048c6d:	8b 44 9d dc          	mov    -0x24(%ebp,%ebx,4),%eax
 8048c71:	83 e8 01             	sub    $0x1,%eax
 8048c74:	83 f8 05             	cmp    $0x5,%eax
 8048c77:	76 05                	jbe    8048c7e <phase_6+0x31>
 8048c79:	e8 0a 05 00 00       	call   8049188 <explode_bomb>
 8048c7e:	8d 7b 01             	lea    0x1(%ebx),%edi
 8048c81:	83 ff 06             	cmp    $0x6,%edi
 8048c84:	75 18                	jne    8048c9e <phase_6+0x51>
 8048c86:	ba fc b5 04 08       	mov    $0x804b5fc,%edx
 8048c8b:	b8 01 00 00 00       	mov    $0x1,%eax
 8048c90:	b9 00 00 00 00       	mov    $0x0,%ecx
 8048c95:	89 d6                	mov    %edx,%esi
 8048c97:	bb 01 00 00 00       	mov    $0x1,%ebx
 8048c9c:	eb 28                	jmp    8048cc6 <phase_6+0x79>
 8048c9e:	8d 74 bd dc          	lea    -0x24(%ebp,%edi,4),%esi
 8048ca2:	89 fb                	mov    %edi,%ebx
 8048ca4:	8b 44 bd d8          	mov    -0x28(%ebp,%edi,4),%eax
 8048ca8:	3b 06                	cmp    (%esi),%eax
 8048caa:	75 05                	jne    8048cb1 <phase_6+0x64>
 8048cac:	e8 d7 04 00 00       	call   8049188 <explode_bomb>
 8048cb1:	83 c3 01             	add    $0x1,%ebx
 8048cb4:	83 c6 04             	add    $0x4,%esi
 8048cb7:	83 fb 05             	cmp    $0x5,%ebx
 8048cba:	7e e8                	jle    8048ca4 <phase_6+0x57>
 8048cbc:	89 fb                	mov    %edi,%ebx
 8048cbe:	eb ad                	jmp    8048c6d <phase_6+0x20>
 8048cc0:	8b 52 08             	mov    0x8(%edx),%edx
 8048cc3:	83 c0 01             	add    $0x1,%eax
 8048cc6:	3b 44 8d dc          	cmp    -0x24(%ebp,%ecx,4),%eax
 8048cca:	7c f4                	jl     8048cc0 <phase_6+0x73>
 8048ccc:	89 54 8d c4          	mov    %edx,-0x3c(%ebp,%ecx,4)
 8048cd0:	83 c1 01             	add    $0x1,%ecx
 8048cd3:	83 f9 05             	cmp    $0x5,%ecx
 8048cd6:	7f 06                	jg     8048cde <phase_6+0x91>
 8048cd8:	89 f2                	mov    %esi,%edx
 8048cda:	89 d8                	mov    %ebx,%eax
 8048cdc:	eb e8                	jmp    8048cc6 <phase_6+0x79>
 8048cde:	8b 4d c4             	mov    -0x3c(%ebp),%ecx
 8048ce1:	8b 45 c8             	mov    -0x38(%ebp),%eax
 8048ce4:	89 41 08             	mov    %eax,0x8(%ecx)
 8048ce7:	8b 55 cc             	mov    -0x34(%ebp),%edx
 8048cea:	89 50 08             	mov    %edx,0x8(%eax)
 8048ced:	8b 45 d0             	mov    -0x30(%ebp),%eax
 8048cf0:	89 42 08             	mov    %eax,0x8(%edx)
 8048cf3:	8b 55 d4             	mov    -0x2c(%ebp),%edx
 8048cf6:	89 50 08             	mov    %edx,0x8(%eax)
 8048cf9:	8b 45 d8             	mov    -0x28(%ebp),%eax
 8048cfc:	89 42 08             	mov    %eax,0x8(%edx)
 8048cff:	c7 40 08 00 00 00 00 	movl   $0x0,0x8(%eax)
 8048d06:	89 cb                	mov    %ecx,%ebx
 8048d08:	be 00 00 00 00       	mov    $0x0,%esi
 8048d0d:	8b 13                	mov    (%ebx),%edx
 8048d0f:	81 e2 ff 03 00 00    	and    $0x3ff,%edx
 8048d15:	8b 43 08             	mov    0x8(%ebx),%eax
 8048d18:	8b 00                	mov    (%eax),%eax
 8048d1a:	25 ff 03 00 00       	and    $0x3ff,%eax
 8048d1f:	39 c2                	cmp    %eax,%edx
 8048d21:	7e 05                	jle    8048d28 <phase_6+0xdb>
 8048d23:	e8 60 04 00 00       	call   8049188 <explode_bomb>
 8048d28:	8b 5b 08             	mov    0x8(%ebx),%ebx
 8048d2b:	83 c6 01             	add    $0x1,%esi
 8048d2e:	83 fe 05             	cmp    $0x5,%esi
 8048d31:	75 da                	jne    8048d0d <phase_6+0xc0>
 8048d33:	83 c4 3c             	add    $0x3c,%esp
 8048d36:	5b                   	pop    %ebx
 8048d37:	5e                   	pop    %esi
 8048d38:	5f                   	pop    %edi
 8048d39:	5d                   	pop    %ebp
 8048d3a:	c3                   	ret    

080491be <read_six_numbers>:
 80491be:	55                   	push   %ebp
 80491bf:	89 e5                	mov    %esp,%ebp
 80491c1:	83 ec 28             	sub    $0x28,%esp
 80491c4:	8b 55 0c             	mov    0xc(%ebp),%edx
 80491c7:	8d 42 14             	lea    0x14(%edx),%eax
 80491ca:	89 44 24 1c          	mov    %eax,0x1c(%esp)
 80491ce:	8d 42 10             	lea    0x10(%edx),%eax
 80491d1:	89 44 24 18          	mov    %eax,0x18(%esp)
 80491d5:	8d 42 0c             	lea    0xc(%edx),%eax
 80491d8:	89 44 24 14          	mov    %eax,0x14(%esp)
 80491dc:	8d 42 08             	lea    0x8(%edx),%eax
 80491df:	89 44 24 10          	mov    %eax,0x10(%esp)
 80491e3:	8d 42 04             	lea    0x4(%edx),%eax
 80491e6:	89 44 24 0c          	mov    %eax,0xc(%esp)
 80491ea:	89 54 24 08          	mov    %edx,0x8(%esp)
 80491ee:	c7 44 24 04 01 a5 04 	movl   $0x804a501,0x4(%esp)
 80491f5:	08 
 80491f6:	8b 45 08             	mov    0x8(%ebp),%eax
 80491f9:	89 04 24             	mov    %eax,(%esp)
 80491fc:	e8 df f6 ff ff       	call   80488e0 <sscanf@plt>
 8049201:	83 f8 05             	cmp    $0x5,%eax
 8049204:	7f 05                	jg     804920b <read_six_numbers+0x4d>
 8049206:	e8 7d ff ff ff       	call   8049188 <explode_bomb>
 804920b:	c9                   	leave  
 804920c:	8d 74 26 00          	lea    0x0(%esi,%eiz,1),%esi
 8049210:	c3                   	ret    

08048d3b <phase_2>:
 8048d3b:	55                   	push   %ebp
 8048d3c:	89 e5                	mov    %esp,%ebp
 8048d3e:	56                   	push   %esi
 8048d3f:	53                   	push   %ebx
 8048d40:	83 ec 30             	sub    $0x30,%esp
 8048d43:	8d 45 e0             	lea    -0x20(%ebp),%eax
 8048d46:	89 44 24 04          	mov    %eax,0x4(%esp)
 8048d4a:	8b 45 08             	mov    0x8(%ebp),%eax
 8048d4d:	89 04 24             	mov    %eax,(%esp)
 8048d50:	e8 69 04 00 00       	call   80491be <read_six_numbers>
 8048d55:	83 7d e0 00          	cmpl   $0x0,-0x20(%ebp)           # if (ebp[0]==0)     $
 8048d59:	79 27                	jns    8048d82 <phase_2+0x47>	  # goto L2
 8048d5b:	e8 28 04 00 00       	call   8049188 <explode_bomb>     #                    $
 8048d60:	eb 20                	jmp    8048d82 <phase_2+0x47>     # goto L2
 8048d62:	89 d8                	mov    %ebx,%eax                  #L1: eax=ebx
 8048d64:	03 44 5e fc          	add    -0x4(%esi,%ebx,2),%eax     # eax+=2
 8048d68:	39 04 5e             	cmp    %eax,(%esi,%ebx,2)         # 
 8048d6b:	74 05                	je     8048d72 <phase_2+0x37>     # goto L3
 8048d6d:	e8 16 04 00 00       	call   8049188 <explode_bomb>     #                    $
 8048d72:	83 c3 02             	add    $0x2,%ebx                  #L3: ebx+=2
 8048d75:	83 fb 0c             	cmp    $0xc,%ebx                  # if (ebx<=11)
 8048d78:	75 e8                	jne    8048d62 <phase_2+0x27>     #    goto L1
 8048d7a:	8d b6 00 00 00 00    	lea    0x0(%esi),%esi             # else: esi=esi
 8048d80:	eb 10                	jmp    8048d92 <phase_2+0x57>     # exit 
 8048d82:	bb 02 00 00 00       	mov    $0x2,%ebx                  #L2: ebx=2
 8048d87:	8d 75 e0             	lea    -0x20(%ebp),%esi	          # esi=ebp[0]
 8048d8a:	8d b6 00 00 00 00    	lea    0x0(%esi),%esi             # 
 8048d90:	eb d0                	jmp    8048d62 <phase_2+0x27>     # goto L1
 8048d92:	83 c4 30             	add    $0x30,%esp                 #L4 : esp+=30
 8048d95:	5b                   	pop    %ebx                       
 8048d96:	5e                   	pop    %esi                       
 8048d97:	5d                   	pop    %ebp                       
 8048d98:	c3                   	ret    

08048d99 <phase_5>:
 8048d99:	55                   	push   %ebp                      
 8048d9a:	89 e5                	mov    %esp,%ebp                 
 8048d9c:	53                   	push   %ebx                      
 8048d9d:	83 ec 24             	sub    $0x24,%esp                
 8048da0:	8d 45 f4             	lea    -0xc(%ebp),%eax           
 8048da3:	89 44 24 0c          	mov    %eax,0xc(%esp)            
 8048da7:	8d 45 f8             	lea    -0x8(%ebp),%eax           
 8048daa:	89 44 24 08          	mov    %eax,0x8(%esp)            
 8048dae:	c7 44 24 04 0d a5 04 	movl   $0x804a50d,0x4(%esp)      "%d %d"
 8048db5:	08                           
 8048db6:	8b 45 08             	mov    0x8(%ebp),%eax            
 8048db9:	89 04 24             	mov    %eax,(%esp)               
 8048dbc:	e8 1f fb ff ff       	call   80488e0 <sscanf@plt>      
 8048dc1:	83 f8 01             	cmp    $0x1,%eax                 if scan() > 1:
 8048dc4:	7f 05                	jg     8048dcb <phase_5+0x32>       goto dcb
 8048dc6:	e8 bd 03 00 00       	call   8049188 <explode_bomb>    else: boom
 8048dcb:	8b 45 f8             	mov    -0x8(%ebp),%eax           b
 8048dce:	83 e0 0f             	and    $0xf,%eax                 p = b & 0xf
 8048dd1:	89 45 f8             	mov    %eax,-0x8(%ebp)           b = p
 8048dd4:	83 f8 0f             	cmp    $0xf,%eax                 if p==15
 8048dd7:	74 29                	je     8048e02 <phase_5+0x69>      boom.
 8048dd9:	ba 00 00 00 00       	mov    $0x0,%edx                 edx = 0 
 8048dde:	b9 00 00 00 00       	mov    $0x0,%ecx                 ecx = 0
 8048de3:	bb 80 a4 04 08       	mov    $0x804a480,%ebx           ebx = &array_2681
 8048de8:	83 c2 01             	add    $0x1,%edx                 edx++
 8048deb:	8b 04 83             	mov    (%ebx,%eax,4),%eax        p = array_2681[4*p]
 8048dee:	01 c1                	add    %eax,%ecx                 ecx += p
 8048df0:	83 f8 0f             	cmp    $0xf,%eax                 if p != 15:
 8048df3:	75 f3                	jne    8048de8 <phase_5+0x4f>       goto de8
 8048df5:	89 45 f8             	mov    %eax,-0x8(%ebp)           b = 15
 8048df8:	83 fa 0f             	cmp    $0xf,%edx                 if edx != 15:
 8048dfb:	75 05                	jne    8048e02 <phase_5+0x69>       boom
 8048dfd:	3b 4d f4             	cmp    -0xc(%ebp),%ecx           if ecx == a:
 8048e00:	74 0b                	je     8048e0d <phase_5+0x74>       goto e0d
 8048e02:	8d b6 00 00 00 00    	lea    0x0(%esi),%esi            boom
 8048e08:	e8 7b 03 00 00       	call   8049188 <explode_bomb>    
 8048e0d:	83 c4 24             	add    $0x24,%esp                
 8048e10:	5b                   	pop    %ebx                      
 8048e11:	5d                   	pop    %ebp                      
 8048e12:	8d b6 00 00 00 00    	lea    0x0(%esi),%esi            
 8048e18:	c3                   	ret                              


08048b30 <func4>:
 8048b30:	55                   	push   %ebp
 8048b31:	89 e5                	mov    %esp,%ebp
 8048b33:	83 ec 14             	sub    $0x14,%esp
 8048b36:	89 5d f8             	mov    %ebx,-0x8(%ebp)	       -----gymnastics
 8048b39:	89 75 fc             	mov    %esi,-0x4(%ebp)
 8048b3c:	8b 75 08             	mov    0x8(%ebp),%esi          
 8048b3f:	8b 4d 0c             	mov    0xc(%ebp),%ecx          
 8048b42:	8b 55 10             	mov    0x10(%ebp),%edx         
 8048b45:	29 ca                	sub    %ecx,%edx               
 8048b47:	89 d0                	mov    %edx,%eax               
 8048b49:	c1 e8 1f             	shr    $0x1f,%eax              
 8048b4c:	01 d0                	add    %edx,%eax               
 8048b4e:	d1 f8                	sar    %eax                    
 8048b50:	8d 1c 08             	lea    (%eax,%ecx,1),%ebx      
 8048b53:	39 f3                	cmp    %esi,%ebx               
 8048b55:	7e 17                	jle    8048b6e <func4+0x3e>    goto b6e
 8048b57:	8d 43 ff             	lea    -0x1(%ebx),%eax         
 8048b5a:	89 44 24 08          	mov    %eax,0x8(%esp)          
 8048b5e:	89 4c 24 04          	mov    %ecx,0x4(%esp)          
 8048b62:	89 34 24             	mov    %esi,(%esp)             
 8048b65:	e8 c6 ff ff ff       	call   8048b30 <func4>         
 8048b6a:	01 c3                	add    %eax,%ebx               
 8048b6c:	eb 1c                	jmp    8048b8a <func4+0x5a>    
 8048b6e:	39 f3                	cmp    %esi,%ebx               
 8048b70:	7d 18                	jge    8048b8a <func4+0x5a>    
 8048b72:	8b 45 10             	mov    0x10(%ebp),%eax         
 8048b75:	89 44 24 08          	mov    %eax,0x8(%esp)          
 8048b79:	8d 43 01             	lea    0x1(%ebx),%eax          
 8048b7c:	89 44 24 04          	mov    %eax,0x4(%esp)          
 8048b80:	89 34 24             	mov    %esi,(%esp)             
 8048b83:	e8 a8 ff ff ff       	call   8048b30 <func4>         
 8048b88:	01 c3                	add    %eax,%ebx               
 8048b8a:	89 d8                	mov    %ebx,%eax               
 8048b8c:	8b 5d f8             	mov    -0x8(%ebp),%ebx         
 8048b8f:	8b 75 fc             	mov    -0x4(%ebp),%esi         
 8048b92:	89 ec                	mov    %ebp,%esp               
 8048b94:	5d                   	pop    %ebp                    
 8048b95:	c3                   	ret                            
          
08048e19 <phase_4>:          
 8048e19:	55                   	push   %ebp                    
 8048e1a:	89 e5                	mov    %esp,%ebp                    
 8048e1c:	83 ec 28             	sub    $0x28,%esp                    
 8048e1f:	8d 45 f8             	lea    -0x8(%ebp),%eax          
 8048e22:	89 44 24 0c          	mov    %eax,0xc(%esp)          
 8048e26:	8d 45 fc             	lea    -0x4(%ebp),%eax          
 8048e29:	89 44 24 08          	mov    %eax,0x8(%esp)          
 8048e2d:	c7 44 24 04 0d a5 04 	movl   $0x804a50d,0x4(%esp)          
 8048e34:	08           
 8048e35:	8b 45 08             	mov    0x8(%ebp),%eax                
 8048e38:	89 04 24             	mov    %eax,(%esp)                
 8048e3b:	e8 a0 fa ff ff       	call   80488e0 <sscanf@plt>       
 8048e40:	83 f8 02             	cmp    $0x2,%eax                 if scan(i,a,b) ! =2 
 8048e43:	75 0d                	jne    8048e52 <phase_4+0x39>        -boom
 8048e45:	8b 45 fc             	mov    -0x4(%ebp),%eax           else:  
 8048e48:	85 c0                	test   %eax,%eax                   
 8048e4a:	78 06                	js     8048e52 <phase_4+0x39>     
 8048e4c:	83 f8 0e             	cmp    $0xe,%eax                 if eax < 14
 8048e4f:	90                   	nop                    	            -boom
 8048e50:	7e 0b                	jle    8048e5d <phase_4+0x44>     
 8048e52:	8d b6 00 00 00 00    	lea    0x0(%esi),%esi          boom: 
 8048e58:	e8 2b 03 00 00       	call   8049188 <explode_bomb>     
 8048e5d:	c7 44 24 08 0e 00 00 	movl   $0xe,0x8(%esp)           a2 = 14 
 8048e64:	00                     
 8048e65:	c7 44 24 04 00 00 00 	movl   $0x0,0x4(%esp)           a1 = 0   
 8048e6c:	00                     
 8048e6d:	8b 45 fc             	mov    -0x4(%ebp),%eax             setup function call  
 8048e70:	89 04 24             	mov    %eax,(%esp)                
 8048e73:	e8 b8 fc ff ff       	call   8048b30 <func4>          call func4(a,a1,a2)  
 8048e78:	83 f8 0d             	cmp    $0xd,%eax               if eax != 13 
 8048e7b:	75 06                	jne    8048e83 <phase_4+0x6a>     -boom
 8048e7d:	83 7d f8 0d          	cmpl   $0xd,-0x8(%ebp)         if  b != 13
 8048e81:	74 0a                	je     8048e8d <phase_4+0x74>     boom
 8048e83:	90                   	nop                            boom:
 8048e84:	8d 74 26 00          	lea    0x0(%esi,%eiz,1),%esi      
 8048e88:	e8 fb 02 00 00       	call   8049188 <explode_bomb>     
 8048e8d:	c9                   	leave                          safe:                
 8048e8e:	66 90                	xchg   %ax,%ax                    
 8048e90:	c3                   	ret              

08048e91 <phase_3>:
 8048e91:	55                   	push   %ebp
 8048e92:	89 e5                	mov    %esp,%ebp
 8048e94:	83 ec 28             	sub    $0x28,%esp
 8048e97:	8d 45 f8             	lea    -0x8(%ebp),%eax
 8048e9a:	89 44 24 0c          	mov    %eax,0xc(%esp)
 8048e9e:	8d 45 fc             	lea    -0x4(%ebp),%eax
 8048ea1:	89 44 24 08          	mov    %eax,0x8(%esp)
 8048ea5:	c7 44 24 04 0d a5 04 	movl   $0x804a50d,0x4(%esp)
 8048eac:	08 
 8048ead:	8b 45 08             	mov    0x8(%ebp),%eax 
 8048eb0:	89 04 24             	mov    %eax,(%esp)
 8048eb3:	e8 28 fa ff ff       	call   80488e0 <sscanf@plt>
 8048eb8:	83 f8 01             	cmp    $0x1,%eax                 
 8048ebb:	7f 05                	jg     8048ec2 <phase_3+0x31>     goto ec2
 8048ebd:	e8 c6 02 00 00       	call   8049188 <explode_bomb>
 8048ec2:	83 7d fc 07          	cmpl   $0x7,-0x4(%ebp)            if a >= 7 boom
 8048ec6:	66 90                	xchg   %ax,%ax	                  
 8048ec8:	77 50                	ja     8048f1a <phase_3+0x89>     
 8048eca:	8b 45 fc             	mov    -0x4(%ebp),%eax            j = a
 8048ecd:	8d 76 00             	lea    0x0(%esi),%esi             
 8048ed0:	ff 24 85 60 a2 04 08 	jmp    *0x804a260(,%eax,4)        
 8048ed7:	b8 5b 02 00 00       	mov    $0x25b,%eax                c = 603
 8048edc:	8d 74 26 00          	lea    0x0(%esi,%eiz,1),%esi
 8048ee0:	eb 48                	jmp    8048f2a <phase_3+0x99>        goto f2a
 8048ee2:	b8 55 0c 00 00       	mov    $0xc55,%eax                c = 3157
 8048ee7:	90                   	nop
 8048ee8:	eb 40                	jmp    8048f2a <phase_3+0x99>
 8048eea:	b8 a9 06 00 00       	mov    $0x6a9,%eax                c = 1805
 8048eef:	90                   	nop
 8048ef0:	eb 38                	jmp    8048f2a <phase_3+0x99>
 8048ef2:	b8 c9 09 00 00       	mov    $0x9c9,%eax                c = 2505
 8048ef7:	90                   	nop
 8048ef8:	eb 30                	jmp    8048f2a <phase_3+0x99>
 8048efa:	b8 0f 08 00 00       	mov    $0x80f,%eax                c = 2063
 8048eff:	90                   	nop
 8048f00:	eb 28                	jmp    8048f2a <phase_3+0x99>
 8048f02:	b8 b4 0f 00 00       	mov    $0xfb4,%eax                c = 4020
 8048f07:	90                   	nop
 8048f08:	eb 20                	jmp    8048f2a <phase_3+0x99>
 8048f0a:	b8 35 03 00 00       	mov    $0x335,%eax                c = 821
 8048f0f:	90                   	nop
 8048f10:	eb 18                	jmp    8048f2a <phase_3+0x99>
 8048f12:	b8 3c 06 00 00       	mov    $0x63c,%eax                c = 1596
 8048f17:	90                   	nop
 8048f18:	eb 10                	jmp    8048f2a <phase_3+0x99>
 8048f1a:	8d b6 00 00 00 00    	lea    0x0(%esi),%esi                
 8048f20:	e8 63 02 00 00       	call   8049188 <explode_bomb>
 8048f25:	b8 00 00 00 00       	mov    $0x0,%eax
 8048f2a:	83 c0 03             	add    $0x3,%eax                  c += 3
 8048f2d:	3b 45 f8             	cmp    -0x8(%ebp),%eax            
 8048f30:	74 05                	je     8048f37 <phase_3+0xa6>
 8048f32:	e8 51 02 00 00       	call   8049188 <explode_bomb>
 8048f37:	c9                   	leave  
 8048f38:	c3                   	ret    

08048f39 <phase_1>:
 8048f39:	55                   	push   %ebp
 8048f3a:	89 e5                	mov    %esp,%ebp
 8048f3c:	83 ec 08             	sub    $0x8,%esp
 8048f3f:	c7 44 24 04 20 a2 04 	movl   $0x804a220,0x4(%esp)
 8048f46:	08 
 8048f47:	8b 45 08             	mov    0x8(%ebp),%eax
 8048f4a:	89 04 24             	mov    %eax,(%esp)
 8048f4d:	e8 39 00 00 00       	call   8048f8b <strings_not_equal>
 8048f52:	85 c0                	test   %eax,%eax
 8048f54:	74 05                	je     8048f5b <phase_1+0x22>
 8048f56:	e8 2d 02 00 00       	call   8049188 <explode_bomb>
 8048f5b:	c9                   	leave  
 8048f5c:	8d 74 26 00          	lea    0x0(%esi,%eiz,1),%esi
 8048f60:	c3                   	ret    
 8048f61:	90                   	nop
 8048f62:	90                   	nop
 8048f63:	90                   	nop
 8048f64:	90                   	nop
 8048f65:	90                   	nop
 8048f66:	90                   	nop
 8048f67:	90                   	nop
 8048f68:	90                   	nop
 8048f69:	90                   	nop
 8048f6a:	90                   	nop
 8048f6b:	90                   	nop
 8048f6c:	90                   	nop
 8048f6d:	90                   	nop
 8048f6e:	90                   	nop
 8048f6f:	90                   	nop

08048f70 <string_length>:
 8048f70:	55                   	push   %ebp
 8048f71:	89 e5                	mov    %esp,%ebp
 8048f73:	8b 55 08             	mov    0x8(%ebp),%edx
 8048f76:	b8 00 00 00 00       	mov    $0x0,%eax
 8048f7b:	80 3a 00             	cmpb   $0x0,(%edx)
 8048f7e:	74 09                	je     8048f89 <string_length+0x19>
 8048f80:	83 c0 01             	add    $0x1,%eax
 8048f83:	80 3c 02 00          	cmpb   $0x0,(%edx,%eax,1)
 8048f87:	75 f7                	jne    8048f80 <string_length+0x10>
 8048f89:	5d                   	pop    %ebp
 8048f8a:	c3                   	ret    

08048f8b <strings_not_equal>:
 8048f8b:	55                   	push   %ebp
 8048f8c:	89 e5                	mov    %esp,%ebp
 8048f8e:	57                   	push   %edi
 8048f8f:	56                   	push   %esi
 8048f90:	53                   	push   %ebx
 8048f91:	83 ec 04             	sub    $0x4,%esp
 8048f94:	8b 7d 08             	mov    0x8(%ebp),%edi
 8048f97:	8b 75 0c             	mov    0xc(%ebp),%esi
 8048f9a:	89 3c 24             	mov    %edi,(%esp)
 8048f9d:	e8 ce ff ff ff       	call   8048f70 <string_length>
 8048fa2:	89 c3                	mov    %eax,%ebx
 8048fa4:	89 34 24             	mov    %esi,(%esp)
 8048fa7:	e8 c4 ff ff ff       	call   8048f70 <string_length>
 8048fac:	39 c3                	cmp    %eax,%ebx
 8048fae:	75 29                	jne    8048fd9 <strings_not_equal+0x4e>
 8048fb0:	0f b6 07             	movzbl (%edi),%eax
 8048fb3:	84 c0                	test   %al,%al
 8048fb5:	74 2b                	je     8048fe2 <strings_not_equal+0x57>
 8048fb7:	ba 00 00 00 00       	mov    $0x0,%edx
 8048fbc:	3a 06                	cmp    (%esi),%al
 8048fbe:	74 0e                	je     8048fce <strings_not_equal+0x43>
 8048fc0:	eb 17                	jmp    8048fd9 <strings_not_equal+0x4e>
 8048fc2:	0f b6 44 16 01       	movzbl 0x1(%esi,%edx,1),%eax
 8048fc7:	83 c2 01             	add    $0x1,%edx
 8048fca:	38 c1                	cmp    %al,%cl
 8048fcc:	75 0b                	jne    8048fd9 <strings_not_equal+0x4e>
 8048fce:	0f b6 4c 17 01       	movzbl 0x1(%edi,%edx,1),%ecx
 8048fd3:	84 c9                	test   %cl,%cl
 8048fd5:	75 eb                	jne    8048fc2 <strings_not_equal+0x37>
 8048fd7:	eb 09                	jmp    8048fe2 <strings_not_equal+0x57>
 8048fd9:	b8 01 00 00 00       	mov    $0x1,%eax
 8048fde:	66 90                	xchg   %ax,%ax
 8048fe0:	eb 05                	jmp    8048fe7 <strings_not_equal+0x5c>
 8048fe2:	b8 00 00 00 00       	mov    $0x0,%eax
 8048fe7:	83 c4 04             	add    $0x4,%esp
 8048fea:	5b                   	pop    %ebx
 8048feb:	5e                   	pop    %esi
 8048fec:	5f                   	pop    %edi
 8048fed:	5d                   	pop    %ebp
 8048fee:	66 90                	xchg   %ax,%ax
 8048ff0:	c3                   	ret    

08048ff1 <initialize_bomb_solve>:
 8048ff1:	55                   	push   %ebp
 8048ff2:	89 e5                	mov    %esp,%ebp
 8048ff4:	5d                   	pop    %ebp
 8048ff5:	c3                   	ret    

08048ff6 <invalid_phase>:
 8048ff6:	55                   	push   %ebp
 8048ff7:	89 e5                	mov    %esp,%ebp
 8048ff9:	83 ec 08             	sub    $0x8,%esp
 8048ffc:	8b 45 08             	mov    0x8(%ebp),%eax
 8048fff:	89 44 24 04          	mov    %eax,0x4(%esp)
 8049003:	c7 04 24 c0 a4 04 08 	movl   $0x804a4c0,(%esp)
 804900a:	e8 61 f8 ff ff       	call   8048870 <printf@plt>
 804900f:	c7 04 24 08 00 00 00 	movl   $0x8,(%esp)
 8049016:	e8 e5 f8 ff ff       	call   8048900 <exit@plt>

0804901b <send_msg>:
 804901b:	55                   	push   %ebp
 804901c:	89 e5                	mov    %esp,%ebp
 804901e:	57                   	push   %edi
 804901f:	53                   	push   %ebx
 8049020:	81 ec 20 40 00 00    	sub    $0x4020,%esp
 8049026:	fc                   	cld    
 8049027:	8b 15 ec b8 04 08    	mov    0x804b8ec,%edx
 804902d:	8d 04 92             	lea    (%edx,%edx,4),%eax
 8049030:	c1 e0 04             	shl    $0x4,%eax
 8049033:	8d 98 b0 b8 04 08    	lea    0x804b8b0(%eax),%ebx
 8049039:	89 df                	mov    %ebx,%edi
 804903b:	b8 00 00 00 00       	mov    $0x0,%eax
 8049040:	b9 ff ff ff ff       	mov    $0xffffffff,%ecx
 8049045:	f2 ae                	repnz scas %es:(%edi),%al
 8049047:	f7 d1                	not    %ecx
 8049049:	83 c1 63             	add    $0x63,%ecx
 804904c:	81 f9 00 20 00 00    	cmp    $0x2000,%ecx
 8049052:	76 18                	jbe    804906c <send_msg+0x51>
 8049054:	c7 04 24 2c a8 04 08 	movl   $0x804a82c,(%esp)
 804905b:	e8 10 f8 ff ff       	call   8048870 <printf@plt>
 8049060:	c7 04 24 08 00 00 00 	movl   $0x8,(%esp)
 8049067:	e8 94 f8 ff ff       	call   8048900 <exit@plt>
 804906c:	b8 da a4 04 08       	mov    $0x804a4da,%eax
 8049071:	83 7d 08 00          	cmpl   $0x0,0x8(%ebp)
 8049075:	75 05                	jne    804907c <send_msg+0x61>
 8049077:	b8 d1 a4 04 08       	mov    $0x804a4d1,%eax
 804907c:	89 5c 24 14          	mov    %ebx,0x14(%esp)
 8049080:	89 54 24 10          	mov    %edx,0x10(%esp)
 8049084:	89 44 24 0c          	mov    %eax,0xc(%esp)
 8049088:	a1 a0 b1 04 08       	mov    0x804b1a0,%eax
 804908d:	89 44 24 08          	mov    %eax,0x8(%esp)
 8049091:	c7 44 24 04 e2 a4 04 	movl   $0x804a4e2,0x4(%esp)
 8049098:	08 
 8049099:	8d 9d f8 df ff ff    	lea    -0x2008(%ebp),%ebx
 804909f:	89 1c 24             	mov    %ebx,(%esp)
 80490a2:	e8 b9 f6 ff ff       	call   8048760 <sprintf@plt>
 80490a7:	8d 85 f8 bf ff ff    	lea    -0x4008(%ebp),%eax
 80490ad:	89 44 24 0c          	mov    %eax,0xc(%esp)
 80490b1:	c7 44 24 08 00 00 00 	movl   $0x0,0x8(%esp)
 80490b8:	00 
 80490b9:	89 5c 24 04          	mov    %ebx,0x4(%esp)
 80490bd:	c7 04 24 c0 b1 04 08 	movl   $0x804b1c0,(%esp)
 80490c4:	e8 77 0e 00 00       	call   8049f40 <driver_post>
 80490c9:	85 c0                	test   %eax,%eax
 80490cb:	79 1a                	jns    80490e7 <send_msg+0xcc>
 80490cd:	8d 85 f8 bf ff ff    	lea    -0x4008(%ebp),%eax
 80490d3:	89 04 24             	mov    %eax,(%esp)
 80490d6:	e8 f5 f7 ff ff       	call   80488d0 <puts@plt>
 80490db:	c7 04 24 00 00 00 00 	movl   $0x0,(%esp)
 80490e2:	e8 19 f8 ff ff       	call   8048900 <exit@plt>
 80490e7:	81 c4 20 40 00 00    	add    $0x4020,%esp
 80490ed:	5b                   	pop    %ebx
 80490ee:	5f                   	pop    %edi
 80490ef:	5d                   	pop    %ebp
 80490f0:	c3                   	ret    

080490f1 <phase_defused>:
 80490f1:	55                   	push   %ebp
 80490f2:	89 e5                	mov    %esp,%ebp
 80490f4:	83 ec 78             	sub    $0x78,%esp
 80490f7:	c7 04 24 01 00 00 00 	movl   $0x1,(%esp)
 80490fe:	e8 18 ff ff ff       	call   804901b <send_msg>
 8049103:	83 3d ec b8 04 08 06 	cmpl   $0x6,0x804b8ec
 804910a:	75 7a                	jne    8049186 <phase_defused+0x95>
 804910c:	8d 45 b0             	lea    -0x50(%ebp),%eax
 804910f:	89 44 24 10          	mov    %eax,0x10(%esp)
 8049113:	8d 45 a8             	lea    -0x58(%ebp),%eax
 8049116:	89 44 24 0c          	mov    %eax,0xc(%esp)
 804911a:	8d 45 ac             	lea    -0x54(%ebp),%eax
 804911d:	89 44 24 08          	mov    %eax,0x8(%esp)
 8049121:	c7 44 24 04 ee a4 04 	movl   $0x804a4ee,0x4(%esp)
 8049128:	08 
 8049129:	c7 04 24 f0 b9 04 08 	movl   $0x804b9f0,(%esp)
 8049130:	e8 ab f7 ff ff       	call   80488e0 <sscanf@plt>
 8049135:	83 f8 03             	cmp    $0x3,%eax
 8049138:	75 34                	jne    804916e <phase_defused+0x7d>
 804913a:	c7 44 24 04 f7 a4 04 	movl   $0x804a4f7,0x4(%esp)
 8049141:	08 
 8049142:	8d 45 b0             	lea    -0x50(%ebp),%eax
 8049145:	89 04 24             	mov    %eax,(%esp)
 8049148:	e8 3e fe ff ff       	call   8048f8b <strings_not_equal>
 804914d:	85 c0                	test   %eax,%eax
 804914f:	75 1d                	jne    804916e <phase_defused+0x7d>
 8049151:	c7 04 24 50 a8 04 08 	movl   $0x804a850,(%esp)
 8049158:	e8 73 f7 ff ff       	call   80488d0 <puts@plt>
 804915d:	c7 04 24 78 a8 04 08 	movl   $0x804a878,(%esp)
 8049164:	e8 67 f7 ff ff       	call   80488d0 <puts@plt>
 8049169:	e8 79 fa ff ff       	call   8048be7 <secret_phase>
 804916e:	c7 04 24 b0 a8 04 08 	movl   $0x804a8b0,(%esp)
 8049175:	e8 56 f7 ff ff       	call   80488d0 <puts@plt>
 804917a:	c7 04 24 dc a8 04 08 	movl   $0x804a8dc,(%esp)
 8049181:	e8 4a f7 ff ff       	call   80488d0 <puts@plt>
 8049186:	c9                   	leave  
 8049187:	c3                   	ret    

08049188 <explode_bomb>:
 8049188:	55                   	push   %ebp
 8049189:	89 e5                	mov    %esp,%ebp
 804918b:	83 ec 08             	sub    $0x8,%esp
 804918e:	c7 04 24 20 a9 04 08 	movl   $0x804a920,(%esp)
 8049195:	e8 36 f7 ff ff       	call   80488d0 <puts@plt>
 804919a:	c7 04 24 00 00 00 00 	movl   $0x0,(%esp)
 80491a1:	e8 75 fe ff ff       	call   804901b <send_msg>
 80491a6:	c7 04 24 54 a9 04 08 	movl   $0x804a954,(%esp)
 80491ad:	e8 1e f7 ff ff       	call   80488d0 <puts@plt>
 80491b2:	c7 04 24 08 00 00 00 	movl   $0x8,(%esp)
 80491b9:	e8 42 f7 ff ff       	call   8048900 <exit@plt>

08049211 <blank_line>:
 8049211:	55                   	push   %ebp
 8049212:	89 e5                	mov    %esp,%ebp
 8049214:	56                   	push   %esi
 8049215:	53                   	push   %ebx
 8049216:	8b 75 08             	mov    0x8(%ebp),%esi
 8049219:	eb 1b                	jmp    8049236 <blank_line+0x25>
 804921b:	e8 00 f6 ff ff       	call   8048820 <__ctype_b_loc@plt>
 8049220:	0f be d3             	movsbl %bl,%edx
 8049223:	8b 00                	mov    (%eax),%eax
 8049225:	f6 44 50 01 20       	testb  $0x20,0x1(%eax,%edx,2)
 804922a:	75 07                	jne    8049233 <blank_line+0x22>
 804922c:	b8 00 00 00 00       	mov    $0x0,%eax
 8049231:	eb 0f                	jmp    8049242 <blank_line+0x31>
 8049233:	83 c6 01             	add    $0x1,%esi
 8049236:	0f b6 1e             	movzbl (%esi),%ebx
 8049239:	84 db                	test   %bl,%bl
 804923b:	75 de                	jne    804921b <blank_line+0xa>
 804923d:	b8 01 00 00 00       	mov    $0x1,%eax
 8049242:	5b                   	pop    %ebx
 8049243:	5e                   	pop    %esi
 8049244:	5d                   	pop    %ebp
 8049245:	c3                   	ret    

08049246 <skip>:
 8049246:	55                   	push   %ebp
 8049247:	89 e5                	mov    %esp,%ebp
 8049249:	53                   	push   %ebx
 804924a:	83 ec 14             	sub    $0x14,%esp
 804924d:	a1 f0 b8 04 08       	mov    0x804b8f0,%eax
 8049252:	89 44 24 08          	mov    %eax,0x8(%esp)
 8049256:	c7 44 24 04 50 00 00 	movl   $0x50,0x4(%esp)
 804925d:	00 
 804925e:	a1 ec b8 04 08       	mov    0x804b8ec,%eax
 8049263:	8d 04 80             	lea    (%eax,%eax,4),%eax
 8049266:	c1 e0 04             	shl    $0x4,%eax
 8049269:	05 00 b9 04 08       	add    $0x804b900,%eax
 804926e:	89 04 24             	mov    %eax,(%esp)
 8049271:	e8 4a f5 ff ff       	call   80487c0 <fgets@plt>
 8049276:	89 c3                	mov    %eax,%ebx
 8049278:	85 c0                	test   %eax,%eax
 804927a:	74 0c                	je     8049288 <skip+0x42>
 804927c:	89 04 24             	mov    %eax,(%esp)
 804927f:	e8 8d ff ff ff       	call   8049211 <blank_line>
 8049284:	85 c0                	test   %eax,%eax
 8049286:	75 c5                	jne    804924d <skip+0x7>
 8049288:	89 d8                	mov    %ebx,%eax
 804928a:	83 c4 14             	add    $0x14,%esp
 804928d:	5b                   	pop    %ebx
 804928e:	5d                   	pop    %ebp
 804928f:	c3                   	ret    

08049290 <read_line>:
 8049290:	55                   	push   %ebp
 8049291:	89 e5                	mov    %esp,%ebp
 8049293:	57                   	push   %edi
 8049294:	53                   	push   %ebx
 8049295:	83 ec 10             	sub    $0x10,%esp
 8049298:	fc                   	cld    
 8049299:	e8 a8 ff ff ff       	call   8049246 <skip>
 804929e:	85 c0                	test   %eax,%eax
 80492a0:	75 6c                	jne    804930e <read_line+0x7e>
 80492a2:	a1 f0 b8 04 08       	mov    0x804b8f0,%eax
 80492a7:	3b 05 c4 b8 04 08    	cmp    0x804b8c4,%eax
 80492ad:	75 18                	jne    80492c7 <read_line+0x37>
 80492af:	c7 04 24 13 a5 04 08 	movl   $0x804a513,(%esp)
 80492b6:	e8 15 f6 ff ff       	call   80488d0 <puts@plt>
 80492bb:	c7 04 24 08 00 00 00 	movl   $0x8,(%esp)
 80492c2:	e8 39 f6 ff ff       	call   8048900 <exit@plt>
 80492c7:	c7 04 24 31 a5 04 08 	movl   $0x804a531,(%esp)
 80492ce:	e8 cd f4 ff ff       	call   80487a0 <getenv@plt>
 80492d3:	85 c0                	test   %eax,%eax
 80492d5:	74 0c                	je     80492e3 <read_line+0x53>
 80492d7:	c7 04 24 00 00 00 00 	movl   $0x0,(%esp)
 80492de:	e8 1d f6 ff ff       	call   8048900 <exit@plt>
 80492e3:	a1 c4 b8 04 08       	mov    0x804b8c4,%eax
 80492e8:	a3 f0 b8 04 08       	mov    %eax,0x804b8f0
 80492ed:	e8 54 ff ff ff       	call   8049246 <skip>
 80492f2:	85 c0                	test   %eax,%eax
 80492f4:	75 18                	jne    804930e <read_line+0x7e>
 80492f6:	c7 04 24 13 a5 04 08 	movl   $0x804a513,(%esp)
 80492fd:	e8 ce f5 ff ff       	call   80488d0 <puts@plt>
 8049302:	c7 04 24 00 00 00 00 	movl   $0x0,(%esp)
 8049309:	e8 f2 f5 ff ff       	call   8048900 <exit@plt>
 804930e:	bb 00 b9 04 08       	mov    $0x804b900,%ebx
 8049313:	8b 3d ec b8 04 08    	mov    0x804b8ec,%edi
 8049319:	8d 3c bf             	lea    (%edi,%edi,4),%edi
 804931c:	c1 e7 04             	shl    $0x4,%edi
 804931f:	8d bf 00 b9 04 08    	lea    0x804b900(%edi),%edi
 8049325:	b8 00 00 00 00       	mov    $0x0,%eax
 804932a:	b9 ff ff ff ff       	mov    $0xffffffff,%ecx
 804932f:	f2 ae                	repnz scas %es:(%edi),%al
 8049331:	f7 d1                	not    %ecx
 8049333:	8d 79 ff             	lea    -0x1(%ecx),%edi
 8049336:	83 ff 4e             	cmp    $0x4e,%edi
 8049339:	7e 43                	jle    804937e <read_line+0xee>
 804933b:	c7 04 24 3c a5 04 08 	movl   $0x804a53c,(%esp)
 8049342:	e8 89 f5 ff ff       	call   80488d0 <puts@plt>
 8049347:	a1 ec b8 04 08       	mov    0x804b8ec,%eax
 804934c:	8d 50 01             	lea    0x1(%eax),%edx
 804934f:	89 15 ec b8 04 08    	mov    %edx,0x804b8ec
 8049355:	8d 04 80             	lea    (%eax,%eax,4),%eax
 8049358:	c1 e0 04             	shl    $0x4,%eax
 804935b:	8d 04 03             	lea    (%ebx,%eax,1),%eax
 804935e:	c7 00 2a 2a 2a 74    	movl   $0x742a2a2a,(%eax)
 8049364:	c7 40 04 72 75 6e 63 	movl   $0x636e7572,0x4(%eax)
 804936b:	c7 40 08 61 74 65 64 	movl   $0x64657461,0x8(%eax)
 8049372:	c7 40 0c 2a 2a 2a 00 	movl   $0x2a2a2a,0xc(%eax)
 8049379:	e8 0a fe ff ff       	call   8049188 <explode_bomb>
 804937e:	8b 15 ec b8 04 08    	mov    0x804b8ec,%edx
 8049384:	8d 04 92             	lea    (%edx,%edx,4),%eax
 8049387:	c1 e0 04             	shl    $0x4,%eax
 804938a:	c6 84 07 ff b8 04 08 	movb   $0x0,0x804b8ff(%edi,%eax,1)
 8049391:	00 
 8049392:	83 c2 01             	add    $0x1,%edx
 8049395:	89 15 ec b8 04 08    	mov    %edx,0x804b8ec
 804939b:	8d 04 03             	lea    (%ebx,%eax,1),%eax
 804939e:	83 c4 10             	add    $0x10,%esp
 80493a1:	5b                   	pop    %ebx
 80493a2:	5f                   	pop    %edi
 80493a3:	5d                   	pop    %ebp
 80493a4:	c3                   	ret    

080493a5 <initialize_bomb>:
 80493a5:	55                   	push   %ebp
 80493a6:	89 e5                	mov    %esp,%ebp
 80493a8:	57                   	push   %edi
 80493a9:	56                   	push   %esi
 80493aa:	53                   	push   %ebx
 80493ab:	81 ec 4c 20 00 00    	sub    $0x204c,%esp
 80493b1:	c7 44 24 04 81 94 04 	movl   $0x8049481,0x4(%esp)
 80493b8:	08 
 80493b9:	c7 04 24 02 00 00 00 	movl   $0x2,(%esp)
 80493c0:	e8 bb f3 ff ff       	call   8048780 <signal@plt>
 80493c5:	c7 44 24 04 40 00 00 	movl   $0x40,0x4(%esp)
 80493cc:	00 
 80493cd:	8d 45 b4             	lea    -0x4c(%ebp),%eax
 80493d0:	89 04 24             	mov    %eax,(%esp)
 80493d3:	e8 d8 f4 ff ff       	call   80488b0 <gethostname@plt>
 80493d8:	85 c0                	test   %eax,%eax
 80493da:	75 18                	jne    80493f4 <initialize_bomb+0x4f>
 80493dc:	a1 c0 b6 04 08       	mov    0x804b6c0,%eax
 80493e1:	bb 00 00 00 00       	mov    $0x0,%ebx
 80493e6:	8d 7d b4             	lea    -0x4c(%ebp),%edi
 80493e9:	be c0 b6 04 08       	mov    $0x804b6c0,%esi
 80493ee:	85 c0                	test   %eax,%eax
 80493f0:	75 1a                	jne    804940c <initialize_bomb+0x67>
 80493f2:	eb 6a                	jmp    804945e <initialize_bomb+0xb9>
 80493f4:	c7 04 24 9c a9 04 08 	movl   $0x804a99c,(%esp)
 80493fb:	e8 d0 f4 ff ff       	call   80488d0 <puts@plt>
 8049400:	c7 04 24 08 00 00 00 	movl   $0x8,(%esp)
 8049407:	e8 f4 f4 ff ff       	call   8048900 <exit@plt>
 804940c:	89 7c 24 04          	mov    %edi,0x4(%esp)
 8049410:	89 04 24             	mov    %eax,(%esp)
 8049413:	e8 68 f4 ff ff       	call   8048880 <strcasecmp@plt>
 8049418:	85 c0                	test   %eax,%eax
 804941a:	74 0e                	je     804942a <initialize_bomb+0x85>
 804941c:	83 c3 01             	add    $0x1,%ebx
 804941f:	8b 04 9e             	mov    (%esi,%ebx,4),%eax
 8049422:	85 c0                	test   %eax,%eax
 8049424:	75 e6                	jne    804940c <initialize_bomb+0x67>
 8049426:	66 90                	xchg   %ax,%ax
 8049428:	eb 34                	jmp    804945e <initialize_bomb+0xb9>
 804942a:	8d 85 b4 df ff ff    	lea    -0x204c(%ebp),%eax
 8049430:	89 04 24             	mov    %eax,(%esp)
 8049433:	e8 98 00 00 00       	call   80494d0 <init_driver>
 8049438:	85 c0                	test   %eax,%eax
 804943a:	79 3a                	jns    8049476 <initialize_bomb+0xd1>
 804943c:	8d 85 b4 df ff ff    	lea    -0x204c(%ebp),%eax
 8049442:	89 44 24 04          	mov    %eax,0x4(%esp)
 8049446:	c7 04 24 57 a5 04 08 	movl   $0x804a557,(%esp)
 804944d:	e8 1e f4 ff ff       	call   8048870 <printf@plt>
 8049452:	c7 04 24 08 00 00 00 	movl   $0x8,(%esp)
 8049459:	e8 a2 f4 ff ff       	call   8048900 <exit@plt>
 804945e:	c7 04 24 d4 a9 04 08 	movl   $0x804a9d4,(%esp)
 8049465:	e8 66 f4 ff ff       	call   80488d0 <puts@plt>
 804946a:	c7 04 24 08 00 00 00 	movl   $0x8,(%esp)
 8049471:	e8 8a f4 ff ff       	call   8048900 <exit@plt>
 8049476:	81 c4 4c 20 00 00    	add    $0x204c,%esp
 804947c:	5b                   	pop    %ebx
 804947d:	5e                   	pop    %esi
 804947e:	5f                   	pop    %edi
 804947f:	5d                   	pop    %ebp
 8049480:	c3                   	ret    

08049481 <sig_handler>:
 8049481:	55                   	push   %ebp
 8049482:	89 e5                	mov    %esp,%ebp
 8049484:	83 ec 08             	sub    $0x8,%esp
 8049487:	c7 04 24 71 a5 04 08 	movl   $0x804a571,(%esp)
 804948e:	e8 dd f3 ff ff       	call   8048870 <printf@plt>
 8049493:	a1 e0 b8 04 08       	mov    0x804b8e0,%eax
 8049498:	89 04 24             	mov    %eax,(%esp)
 804949b:	e8 60 f3 ff ff       	call   8048800 <fflush@plt>
 80494a0:	c7 04 24 01 00 00 00 	movl   $0x1,(%esp)
 80494a7:	e8 14 f4 ff ff       	call   80488c0 <sleep@plt>
 80494ac:	c7 04 24 81 a5 04 08 	movl   $0x804a581,(%esp)
 80494b3:	e8 18 f4 ff ff       	call   80488d0 <puts@plt>
 80494b8:	c7 04 24 01 00 00 00 	movl   $0x1,(%esp)
 80494bf:	e8 fc f3 ff ff       	call   80488c0 <sleep@plt>
 80494c4:	c7 04 24 10 00 00 00 	movl   $0x10,(%esp)
 80494cb:	e8 30 f4 ff ff       	call   8048900 <exit@plt>

080494d0 <init_driver>:
 80494d0:	55                   	push   %ebp
 80494d1:	89 e5                	mov    %esp,%ebp
 80494d3:	57                   	push   %edi
 80494d4:	56                   	push   %esi
 80494d5:	53                   	push   %ebx
 80494d6:	83 ec 1c             	sub    $0x1c,%esp
 80494d9:	8b 7d 08             	mov    0x8(%ebp),%edi
 80494dc:	c7 44 24 04 01 00 00 	movl   $0x1,0x4(%esp)
 80494e3:	00 
 80494e4:	c7 04 24 0d 00 00 00 	movl   $0xd,(%esp)
 80494eb:	e8 90 f2 ff ff       	call   8048780 <signal@plt>
 80494f0:	c7 44 24 04 01 00 00 	movl   $0x1,0x4(%esp)
 80494f7:	00 
 80494f8:	c7 04 24 1d 00 00 00 	movl   $0x1d,(%esp)
 80494ff:	e8 7c f2 ff ff       	call   8048780 <signal@plt>
 8049504:	c7 44 24 04 01 00 00 	movl   $0x1,0x4(%esp)
 804950b:	00 
 804950c:	c7 04 24 1d 00 00 00 	movl   $0x1d,(%esp)
 8049513:	e8 68 f2 ff ff       	call   8048780 <signal@plt>
 8049518:	c7 44 24 08 00 00 00 	movl   $0x0,0x8(%esp)
 804951f:	00 
 8049520:	c7 44 24 04 01 00 00 	movl   $0x1,0x4(%esp)
 8049527:	00 
 8049528:	c7 04 24 02 00 00 00 	movl   $0x2,(%esp)
 804952f:	e8 dc f2 ff ff       	call   8048810 <socket@plt>
 8049534:	89 c6                	mov    %eax,%esi
 8049536:	85 c0                	test   %eax,%eax
 8049538:	79 4e                	jns    8049588 <init_driver+0xb8>
 804953a:	c7 07 45 72 72 6f    	movl   $0x6f727245,(%edi)
 8049540:	c7 47 04 72 3a 20 43 	movl   $0x43203a72,0x4(%edi)
 8049547:	c7 47 08 6c 69 65 6e 	movl   $0x6e65696c,0x8(%edi)
 804954e:	c7 47 0c 74 20 75 6e 	movl   $0x6e752074,0xc(%edi)
 8049555:	c7 47 10 61 62 6c 65 	movl   $0x656c6261,0x10(%edi)
 804955c:	c7 47 14 20 74 6f 20 	movl   $0x206f7420,0x14(%edi)
 8049563:	c7 47 18 63 72 65 61 	movl   $0x61657263,0x18(%edi)
 804956a:	c7 47 1c 74 65 20 73 	movl   $0x73206574,0x1c(%edi)
 8049571:	c7 47 20 6f 63 6b 65 	movl   $0x656b636f,0x20(%edi)
 8049578:	66 c7 47 24 74 00    	movw   $0x74,0x24(%edi)
 804957e:	b8 ff ff ff ff       	mov    $0xffffffff,%eax
 8049583:	e9 14 01 00 00       	jmp    804969c <init_driver+0x1cc>
 8049588:	c7 04 24 09 aa 04 08 	movl   $0x804aa09,(%esp)
 804958f:	e8 5c f3 ff ff       	call   80488f0 <gethostbyname@plt>
 8049594:	89 c2                	mov    %eax,%edx
 8049596:	85 c0                	test   %eax,%eax
 8049598:	75 68                	jne    8049602 <init_driver+0x132>
 804959a:	c7 07 45 72 72 6f    	movl   $0x6f727245,(%edi)
 80495a0:	c7 47 04 72 3a 20 44 	movl   $0x44203a72,0x4(%edi)
 80495a7:	c7 47 08 4e 53 20 69 	movl   $0x6920534e,0x8(%edi)
 80495ae:	c7 47 0c 73 20 75 6e 	movl   $0x6e752073,0xc(%edi)
 80495b5:	c7 47 10 61 62 6c 65 	movl   $0x656c6261,0x10(%edi)
 80495bc:	c7 47 14 20 74 6f 20 	movl   $0x206f7420,0x14(%edi)
 80495c3:	c7 47 18 72 65 73 6f 	movl   $0x6f736572,0x18(%edi)
 80495ca:	c7 47 1c 6c 76 65 20 	movl   $0x2065766c,0x1c(%edi)
 80495d1:	c7 47 20 73 65 72 76 	movl   $0x76726573,0x20(%edi)
 80495d8:	c7 47 24 65 72 20 61 	movl   $0x61207265,0x24(%edi)
 80495df:	c7 47 28 64 64 72 65 	movl   $0x65726464,0x28(%edi)
 80495e6:	66 c7 47 2c 73 73    	movw   $0x7373,0x2c(%edi)
 80495ec:	c6 47 2e 00          	movb   $0x0,0x2e(%edi)
 80495f0:	89 34 24             	mov    %esi,(%esp)
 80495f3:	e8 98 f2 ff ff       	call   8048890 <close@plt>
 80495f8:	b8 ff ff ff ff       	mov    $0xffffffff,%eax
 80495fd:	e9 9a 00 00 00       	jmp    804969c <init_driver+0x1cc>
 8049602:	8d 5d e4             	lea    -0x1c(%ebp),%ebx
 8049605:	c7 03 00 00 00 00    	movl   $0x0,(%ebx)
 804960b:	c7 43 04 00 00 00 00 	movl   $0x0,0x4(%ebx)
 8049612:	c7 43 08 00 00 00 00 	movl   $0x0,0x8(%ebx)
 8049619:	c7 43 0c 00 00 00 00 	movl   $0x0,0xc(%ebx)
 8049620:	66 c7 45 e4 02 00    	movw   $0x2,-0x1c(%ebp)
 8049626:	8b 40 0c             	mov    0xc(%eax),%eax
 8049629:	89 44 24 08          	mov    %eax,0x8(%esp)
 804962d:	8d 45 e8             	lea    -0x18(%ebp),%eax
 8049630:	89 44 24 04          	mov    %eax,0x4(%esp)
 8049634:	8b 42 10             	mov    0x10(%edx),%eax
 8049637:	8b 00                	mov    (%eax),%eax
 8049639:	89 04 24             	mov    %eax,(%esp)
 804963c:	e8 ef f1 ff ff       	call   8048830 <bcopy@plt>
 8049641:	66 c7 45 e6 3b 6e    	movw   $0x6e3b,-0x1a(%ebp)
 8049647:	c7 44 24 08 10 00 00 	movl   $0x10,0x8(%esp)
 804964e:	00 
 804964f:	89 5c 24 04          	mov    %ebx,0x4(%esp)
 8049653:	89 34 24             	mov    %esi,(%esp)
 8049656:	e8 15 f1 ff ff       	call   8048770 <connect@plt>
 804965b:	85 c0                	test   %eax,%eax
 804965d:	79 27                	jns    8049686 <init_driver+0x1b6>
 804965f:	c7 44 24 08 09 aa 04 	movl   $0x804aa09,0x8(%esp)
 8049666:	08 
 8049667:	c7 44 24 04 5c aa 04 	movl   $0x804aa5c,0x4(%esp)
 804966e:	08 
 804966f:	89 3c 24             	mov    %edi,(%esp)
 8049672:	e8 e9 f0 ff ff       	call   8048760 <sprintf@plt>
 8049677:	89 34 24             	mov    %esi,(%esp)
 804967a:	e8 11 f2 ff ff       	call   8048890 <close@plt>
 804967f:	b8 ff ff ff ff       	mov    $0xffffffff,%eax
 8049684:	eb 16                	jmp    804969c <init_driver+0x1cc>
 8049686:	89 34 24             	mov    %esi,(%esp)
 8049689:	e8 02 f2 ff ff       	call   8048890 <close@plt>
 804968e:	66 c7 07 4f 4b       	movw   $0x4b4f,(%edi)
 8049693:	c6 47 02 00          	movb   $0x0,0x2(%edi)
 8049697:	b8 00 00 00 00       	mov    $0x0,%eax
 804969c:	83 c4 1c             	add    $0x1c,%esp
 804969f:	5b                   	pop    %ebx
 80496a0:	5e                   	pop    %esi
 80496a1:	5f                   	pop    %edi
 80496a2:	5d                   	pop    %ebp
 80496a3:	c3                   	ret    

080496a4 <init_timeout>:
 80496a4:	55                   	push   %ebp
 80496a5:	89 e5                	mov    %esp,%ebp
 80496a7:	53                   	push   %ebx
 80496a8:	83 ec 14             	sub    $0x14,%esp
 80496ab:	8b 5d 08             	mov    0x8(%ebp),%ebx
 80496ae:	85 db                	test   %ebx,%ebx
 80496b0:	74 25                	je     80496d7 <init_timeout+0x33>
 80496b2:	c7 44 24 04 c8 9f 04 	movl   $0x8049fc8,0x4(%esp)
 80496b9:	08 
 80496ba:	c7 04 24 0e 00 00 00 	movl   $0xe,(%esp)
 80496c1:	e8 ba f0 ff ff       	call   8048780 <signal@plt>
 80496c6:	89 d8                	mov    %ebx,%eax
 80496c8:	c1 f8 1f             	sar    $0x1f,%eax
 80496cb:	f7 d0                	not    %eax
 80496cd:	21 d8                	and    %ebx,%eax
 80496cf:	89 04 24             	mov    %eax,(%esp)
 80496d2:	e8 79 f1 ff ff       	call   8048850 <alarm@plt>
 80496d7:	83 c4 14             	add    $0x14,%esp
 80496da:	5b                   	pop    %ebx
 80496db:	5d                   	pop    %ebp
 80496dc:	c3                   	ret    

080496dd <rio_readlineb>:
 80496dd:	55                   	push   %ebp
 80496de:	89 e5                	mov    %esp,%ebp
 80496e0:	57                   	push   %edi
 80496e1:	56                   	push   %esi
 80496e2:	53                   	push   %ebx
 80496e3:	83 ec 2c             	sub    $0x2c,%esp
 80496e6:	89 c3                	mov    %eax,%ebx
 80496e8:	89 4d dc             	mov    %ecx,-0x24(%ebp)
 80496eb:	89 55 e0             	mov    %edx,-0x20(%ebp)
 80496ee:	8d 70 0c             	lea    0xc(%eax),%esi
 80496f1:	bf 01 00 00 00       	mov    $0x1,%edi
 80496f6:	83 f9 01             	cmp    $0x1,%ecx
 80496f9:	77 42                	ja     804973d <rio_readlineb+0x60>
 80496fb:	eb 6d                	jmp    804976a <rio_readlineb+0x8d>
 80496fd:	c7 44 24 08 00 20 00 	movl   $0x2000,0x8(%esp)
 8049704:	00 
 8049705:	89 74 24 04          	mov    %esi,0x4(%esp)
 8049709:	8b 03                	mov    (%ebx),%eax
 804970b:	89 04 24             	mov    %eax,(%esp)
 804970e:	e8 cd f0 ff ff       	call   80487e0 <read@plt>
 8049713:	89 43 04             	mov    %eax,0x4(%ebx)
 8049716:	85 c0                	test   %eax,%eax
 8049718:	79 18                	jns    8049732 <rio_readlineb+0x55>
 804971a:	e8 31 f0 ff ff       	call   8048750 <__errno_location@plt>
 804971f:	83 38 04             	cmpl   $0x4,(%eax)
 8049722:	8d b6 00 00 00 00    	lea    0x0(%esi),%esi
 8049728:	74 13                	je     804973d <rio_readlineb+0x60>
 804972a:	b8 ff ff ff ff       	mov    $0xffffffff,%eax
 804972f:	90                   	nop
 8049730:	eb 52                	jmp    8049784 <rio_readlineb+0xa7>
 8049732:	85 c0                	test   %eax,%eax
 8049734:	8d 74 26 00          	lea    0x0(%esi,%eiz,1),%esi
 8049738:	74 45                	je     804977f <rio_readlineb+0xa2>
 804973a:	89 73 08             	mov    %esi,0x8(%ebx)
 804973d:	8b 43 04             	mov    0x4(%ebx),%eax
 8049740:	85 c0                	test   %eax,%eax
 8049742:	7e b9                	jle    80496fd <rio_readlineb+0x20>
 8049744:	85 c0                	test   %eax,%eax
 8049746:	75 49                	jne    8049791 <rio_readlineb+0xb4>
 8049748:	89 fa                	mov    %edi,%edx
 804974a:	83 fa 01             	cmp    $0x1,%edx
 804974d:	75 20                	jne    804976f <rio_readlineb+0x92>
 804974f:	bf 00 00 00 00       	mov    $0x0,%edi
 8049754:	8d 74 26 00          	lea    0x0(%esi,%eiz,1),%esi
 8049758:	eb 1b                	jmp    8049775 <rio_readlineb+0x98>
 804975a:	83 c7 01             	add    $0x1,%edi
 804975d:	39 7d dc             	cmp    %edi,-0x24(%ebp)
 8049760:	77 db                	ja     804973d <rio_readlineb+0x60>
 8049762:	8d b6 00 00 00 00    	lea    0x0(%esi),%esi
 8049768:	eb 05                	jmp    804976f <rio_readlineb+0x92>
 804976a:	bf 01 00 00 00       	mov    $0x1,%edi
 804976f:	8b 45 e0             	mov    -0x20(%ebp),%eax
 8049772:	c6 00 00             	movb   $0x0,(%eax)
 8049775:	89 f8                	mov    %edi,%eax
 8049777:	83 c4 2c             	add    $0x2c,%esp
 804977a:	5b                   	pop    %ebx
 804977b:	5e                   	pop    %esi
 804977c:	5f                   	pop    %edi
 804977d:	5d                   	pop    %ebp
 804977e:	c3                   	ret    
 804977f:	b8 00 00 00 00       	mov    $0x0,%eax
 8049784:	89 fa                	mov    %edi,%edx
 8049786:	85 c0                	test   %eax,%eax
 8049788:	74 c0                	je     804974a <rio_readlineb+0x6d>
 804978a:	bf ff ff ff ff       	mov    $0xffffffff,%edi
 804978f:	eb e4                	jmp    8049775 <rio_readlineb+0x98>
 8049791:	8b 43 08             	mov    0x8(%ebx),%eax
 8049794:	0f b6 00             	movzbl (%eax),%eax
 8049797:	88 45 f3             	mov    %al,-0xd(%ebp)
 804979a:	83 43 08 01          	addl   $0x1,0x8(%ebx)
 804979e:	83 6b 04 01          	subl   $0x1,0x4(%ebx)
 80497a2:	8b 55 e0             	mov    -0x20(%ebp),%edx
 80497a5:	88 02                	mov    %al,(%edx)
 80497a7:	83 c2 01             	add    $0x1,%edx
 80497aa:	89 55 e0             	mov    %edx,-0x20(%ebp)
 80497ad:	80 7d f3 0a          	cmpb   $0xa,-0xd(%ebp)
 80497b1:	75 a7                	jne    804975a <rio_readlineb+0x7d>
 80497b3:	eb ba                	jmp    804976f <rio_readlineb+0x92>

080497b5 <submitr>:
 80497b5:	55                   	push   %ebp
 80497b6:	89 e5                	mov    %esp,%ebp
 80497b8:	57                   	push   %edi
 80497b9:	56                   	push   %esi
 80497ba:	53                   	push   %ebx
 80497bb:	81 ec 5c a0 00 00    	sub    $0xa05c,%esp
 80497c1:	fc                   	cld    
 80497c2:	c7 85 d4 7f ff ff 00 	movl   $0x0,-0x802c(%ebp)
 80497c9:	00 00 00 
 80497cc:	c7 44 24 08 00 00 00 	movl   $0x0,0x8(%esp)
 80497d3:	00 
 80497d4:	c7 44 24 04 01 00 00 	movl   $0x1,0x4(%esp)
 80497db:	00 
 80497dc:	c7 04 24 02 00 00 00 	movl   $0x2,(%esp)
 80497e3:	e8 28 f0 ff ff       	call   8048810 <socket@plt>
 80497e8:	89 85 c0 5f ff ff    	mov    %eax,-0xa040(%ebp)
 80497ee:	85 c0                	test   %eax,%eax
 80497f0:	79 51                	jns    8049843 <submitr+0x8e>
 80497f2:	8b 45 20             	mov    0x20(%ebp),%eax
 80497f5:	c7 00 45 72 72 6f    	movl   $0x6f727245,(%eax)
 80497fb:	c7 40 04 72 3a 20 43 	movl   $0x43203a72,0x4(%eax)
 8049802:	c7 40 08 6c 69 65 6e 	movl   $0x6e65696c,0x8(%eax)
 8049809:	c7 40 0c 74 20 75 6e 	movl   $0x6e752074,0xc(%eax)
 8049810:	c7 40 10 61 62 6c 65 	movl   $0x656c6261,0x10(%eax)
 8049817:	c7 40 14 20 74 6f 20 	movl   $0x206f7420,0x14(%eax)
 804981e:	c7 40 18 63 72 65 61 	movl   $0x61657263,0x18(%eax)
 8049825:	c7 40 1c 74 65 20 73 	movl   $0x73206574,0x1c(%eax)
 804982c:	c7 40 20 6f 63 6b 65 	movl   $0x656b636f,0x20(%eax)
 8049833:	66 c7 40 24 74 00    	movw   $0x74,0x24(%eax)
 8049839:	b8 ff ff ff ff       	mov    $0xffffffff,%eax
 804983e:	e9 97 06 00 00       	jmp    8049eda <submitr+0x725>
 8049843:	8b 55 08             	mov    0x8(%ebp),%edx
 8049846:	89 14 24             	mov    %edx,(%esp)
 8049849:	e8 a2 f0 ff ff       	call   80488f0 <gethostbyname@plt>
 804984e:	89 c2                	mov    %eax,%edx
 8049850:	85 c0                	test   %eax,%eax
 8049852:	75 71                	jne    80498c5 <submitr+0x110>
 8049854:	8b 4d 20             	mov    0x20(%ebp),%ecx
 8049857:	c7 01 45 72 72 6f    	movl   $0x6f727245,(%ecx)
 804985d:	c7 41 04 72 3a 20 44 	movl   $0x44203a72,0x4(%ecx)
 8049864:	c7 41 08 4e 53 20 69 	movl   $0x6920534e,0x8(%ecx)
 804986b:	c7 41 0c 73 20 75 6e 	movl   $0x6e752073,0xc(%ecx)
 8049872:	c7 41 10 61 62 6c 65 	movl   $0x656c6261,0x10(%ecx)
 8049879:	c7 41 14 20 74 6f 20 	movl   $0x206f7420,0x14(%ecx)
 8049880:	c7 41 18 72 65 73 6f 	movl   $0x6f736572,0x18(%ecx)
 8049887:	c7 41 1c 6c 76 65 20 	movl   $0x2065766c,0x1c(%ecx)
 804988e:	c7 41 20 73 65 72 76 	movl   $0x76726573,0x20(%ecx)
 8049895:	c7 41 24 65 72 20 61 	movl   $0x61207265,0x24(%ecx)
 804989c:	c7 41 28 64 64 72 65 	movl   $0x65726464,0x28(%ecx)
 80498a3:	66 c7 41 2c 73 73    	movw   $0x7373,0x2c(%ecx)
 80498a9:	c6 41 2e 00          	movb   $0x0,0x2e(%ecx)
 80498ad:	8b 85 c0 5f ff ff    	mov    -0xa040(%ebp),%eax
 80498b3:	89 04 24             	mov    %eax,(%esp)
 80498b6:	e8 d5 ef ff ff       	call   8048890 <close@plt>
 80498bb:	b8 ff ff ff ff       	mov    $0xffffffff,%eax
 80498c0:	e9 15 06 00 00       	jmp    8049eda <submitr+0x725>
 80498c5:	8d 5d e4             	lea    -0x1c(%ebp),%ebx
 80498c8:	c7 03 00 00 00 00    	movl   $0x0,(%ebx)
 80498ce:	c7 43 04 00 00 00 00 	movl   $0x0,0x4(%ebx)
 80498d5:	c7 43 08 00 00 00 00 	movl   $0x0,0x8(%ebx)
 80498dc:	c7 43 0c 00 00 00 00 	movl   $0x0,0xc(%ebx)
 80498e3:	66 c7 45 e4 02 00    	movw   $0x2,-0x1c(%ebp)
 80498e9:	8b 40 0c             	mov    0xc(%eax),%eax
 80498ec:	89 44 24 08          	mov    %eax,0x8(%esp)
 80498f0:	8d 45 e8             	lea    -0x18(%ebp),%eax
 80498f3:	89 44 24 04          	mov    %eax,0x4(%esp)
 80498f7:	8b 42 10             	mov    0x10(%edx),%eax
 80498fa:	8b 00                	mov    (%eax),%eax
 80498fc:	89 04 24             	mov    %eax,(%esp)
 80498ff:	e8 2c ef ff ff       	call   8048830 <bcopy@plt>
 8049904:	0f b7 45 0c          	movzwl 0xc(%ebp),%eax
 8049908:	66 c1 c8 08          	ror    $0x8,%ax
 804990c:	66 89 45 e6          	mov    %ax,-0x1a(%ebp)
 8049910:	c7 44 24 08 10 00 00 	movl   $0x10,0x8(%esp)
 8049917:	00 
 8049918:	89 5c 24 04          	mov    %ebx,0x4(%esp)
 804991c:	8b 95 c0 5f ff ff    	mov    -0xa040(%ebp),%edx
 8049922:	89 14 24             	mov    %edx,(%esp)
 8049925:	e8 46 ee ff ff       	call   8048770 <connect@plt>
 804992a:	85 c0                	test   %eax,%eax
 804992c:	79 63                	jns    8049991 <submitr+0x1dc>
 804992e:	8b 4d 20             	mov    0x20(%ebp),%ecx
 8049931:	c7 01 45 72 72 6f    	movl   $0x6f727245,(%ecx)
 8049937:	c7 41 04 72 3a 20 55 	movl   $0x55203a72,0x4(%ecx)
 804993e:	c7 41 08 6e 61 62 6c 	movl   $0x6c62616e,0x8(%ecx)
 8049945:	c7 41 0c 65 20 74 6f 	movl   $0x6f742065,0xc(%ecx)
 804994c:	c7 41 10 20 63 6f 6e 	movl   $0x6e6f6320,0x10(%ecx)
 8049953:	c7 41 14 6e 65 63 74 	movl   $0x7463656e,0x14(%ecx)
 804995a:	c7 41 18 20 74 6f 20 	movl   $0x206f7420,0x18(%ecx)
 8049961:	c7 41 1c 74 68 65 20 	movl   $0x20656874,0x1c(%ecx)
 8049968:	c7 41 20 73 65 72 76 	movl   $0x76726573,0x20(%ecx)
 804996f:	66 c7 41 24 65 72    	movw   $0x7265,0x24(%ecx)
 8049975:	c6 41 26 00          	movb   $0x0,0x26(%ecx)
 8049979:	8b 85 c0 5f ff ff    	mov    -0xa040(%ebp),%eax
 804997f:	89 04 24             	mov    %eax,(%esp)
 8049982:	e8 09 ef ff ff       	call   8048890 <close@plt>
 8049987:	b8 ff ff ff ff       	mov    $0xffffffff,%eax
 804998c:	e9 49 05 00 00       	jmp    8049eda <submitr+0x725>
 8049991:	bb ff ff ff ff       	mov    $0xffffffff,%ebx
 8049996:	8b 7d 1c             	mov    0x1c(%ebp),%edi
 8049999:	ba 00 00 00 00       	mov    $0x0,%edx
 804999e:	89 d9                	mov    %ebx,%ecx
 80499a0:	89 d0                	mov    %edx,%eax
 80499a2:	f2 ae                	repnz scas %es:(%edi),%al
 80499a4:	89 ce                	mov    %ecx,%esi
 80499a6:	f7 d6                	not    %esi
 80499a8:	89 b5 bc 5f ff ff    	mov    %esi,-0xa044(%ebp)
 80499ae:	8b 7d 10             	mov    0x10(%ebp),%edi
 80499b1:	89 d9                	mov    %ebx,%ecx
 80499b3:	f2 ae                	repnz scas %es:(%edi),%al
 80499b5:	89 ce                	mov    %ecx,%esi
 80499b7:	8b 7d 14             	mov    0x14(%ebp),%edi
 80499ba:	89 d9                	mov    %ebx,%ecx
 80499bc:	f2 ae                	repnz scas %es:(%edi),%al
 80499be:	f7 d1                	not    %ecx
 80499c0:	89 8d b8 5f ff ff    	mov    %ecx,-0xa048(%ebp)
 80499c6:	8b 7d 18             	mov    0x18(%ebp),%edi
 80499c9:	89 d9                	mov    %ebx,%ecx
 80499cb:	f2 ae                	repnz scas %es:(%edi),%al
 80499cd:	89 ca                	mov    %ecx,%edx
 80499cf:	8b 8d b8 5f ff ff    	mov    -0xa048(%ebp),%ecx
 80499d5:	29 f1                	sub    %esi,%ecx
 80499d7:	29 d1                	sub    %edx,%ecx
 80499d9:	8b 95 bc 5f ff ff    	mov    -0xa044(%ebp),%edx
 80499df:	8d 44 52 fd          	lea    -0x3(%edx,%edx,2),%eax
 80499e3:	8d 4c 01 7b          	lea    0x7b(%ecx,%eax,1),%ecx
 80499e7:	81 f9 00 20 00 00    	cmp    $0x2000,%ecx
 80499ed:	76 7c                	jbe    8049a6b <submitr+0x2b6>
 80499ef:	8b 4d 20             	mov    0x20(%ebp),%ecx
 80499f2:	c7 01 45 72 72 6f    	movl   $0x6f727245,(%ecx)
 80499f8:	c7 41 04 72 3a 20 52 	movl   $0x52203a72,0x4(%ecx)
 80499ff:	c7 41 08 65 73 75 6c 	movl   $0x6c757365,0x8(%ecx)
 8049a06:	c7 41 0c 74 20 73 74 	movl   $0x74732074,0xc(%ecx)
 8049a0d:	c7 41 10 72 69 6e 67 	movl   $0x676e6972,0x10(%ecx)
 8049a14:	c7 41 14 20 74 6f 6f 	movl   $0x6f6f7420,0x14(%ecx)
 8049a1b:	c7 41 18 20 6c 61 72 	movl   $0x72616c20,0x18(%ecx)
 8049a22:	c7 41 1c 67 65 2e 20 	movl   $0x202e6567,0x1c(%ecx)
 8049a29:	c7 41 20 49 6e 63 72 	movl   $0x72636e49,0x20(%ecx)
 8049a30:	c7 41 24 65 61 73 65 	movl   $0x65736165,0x24(%ecx)
 8049a37:	c7 41 28 20 53 55 42 	movl   $0x42555320,0x28(%ecx)
 8049a3e:	c7 41 2c 4d 49 54 52 	movl   $0x5254494d,0x2c(%ecx)
 8049a45:	c7 41 30 5f 4d 41 58 	movl   $0x58414d5f,0x30(%ecx)
 8049a4c:	c7 41 34 42 55 46 00 	movl   $0x465542,0x34(%ecx)
 8049a53:	8b 85 c0 5f ff ff    	mov    -0xa040(%ebp),%eax
 8049a59:	89 04 24             	mov    %eax,(%esp)
 8049a5c:	e8 2f ee ff ff       	call   8048890 <close@plt>
 8049a61:	b8 ff ff ff ff       	mov    $0xffffffff,%eax
 8049a66:	e9 6f 04 00 00       	jmp    8049eda <submitr+0x725>
 8049a6b:	8d bd d8 9f ff ff    	lea    -0x6028(%ebp),%edi
 8049a71:	b9 00 08 00 00       	mov    $0x800,%ecx
 8049a76:	b8 00 00 00 00       	mov    $0x0,%eax
 8049a7b:	f3 ab                	rep stos %eax,%es:(%edi)
 8049a7d:	8b 7d 1c             	mov    0x1c(%ebp),%edi
 8049a80:	b9 ff ff ff ff       	mov    $0xffffffff,%ecx
 8049a85:	f2 ae                	repnz scas %es:(%edi),%al
 8049a87:	f7 d1                	not    %ecx
 8049a89:	89 cf                	mov    %ecx,%edi
 8049a8b:	83 ef 01             	sub    $0x1,%edi
 8049a8e:	0f 84 51 04 00 00    	je     8049ee5 <submitr+0x730>
 8049a94:	8d 9d d8 9f ff ff    	lea    -0x6028(%ebp),%ebx
 8049a9a:	be 00 00 00 00       	mov    $0x0,%esi
 8049a9f:	8b 4d 1c             	mov    0x1c(%ebp),%ecx
 8049aa2:	0f b6 14 31          	movzbl (%ecx,%esi,1),%edx
 8049aa6:	80 fa 2a             	cmp    $0x2a,%dl
 8049aa9:	74 25                	je     8049ad0 <submitr+0x31b>
 8049aab:	80 fa 2d             	cmp    $0x2d,%dl
 8049aae:	74 20                	je     8049ad0 <submitr+0x31b>
 8049ab0:	80 fa 2e             	cmp    $0x2e,%dl
 8049ab3:	74 1b                	je     8049ad0 <submitr+0x31b>
 8049ab5:	80 fa 5f             	cmp    $0x5f,%dl
 8049ab8:	74 16                	je     8049ad0 <submitr+0x31b>
 8049aba:	8d 42 d0             	lea    -0x30(%edx),%eax
 8049abd:	3c 09                	cmp    $0x9,%al
 8049abf:	90                   	nop
 8049ac0:	76 0e                	jbe    8049ad0 <submitr+0x31b>
 8049ac2:	8d 42 bf             	lea    -0x41(%edx),%eax
 8049ac5:	3c 19                	cmp    $0x19,%al
 8049ac7:	76 07                	jbe    8049ad0 <submitr+0x31b>
 8049ac9:	8d 42 9f             	lea    -0x61(%edx),%eax
 8049acc:	3c 19                	cmp    $0x19,%al
 8049ace:	77 07                	ja     8049ad7 <submitr+0x322>
 8049ad0:	88 13                	mov    %dl,(%ebx)
 8049ad2:	83 c3 01             	add    $0x1,%ebx
 8049ad5:	eb 56                	jmp    8049b2d <submitr+0x378>
 8049ad7:	80 fa 20             	cmp    $0x20,%dl
 8049ada:	75 08                	jne    8049ae4 <submitr+0x32f>
 8049adc:	c6 03 2b             	movb   $0x2b,(%ebx)
 8049adf:	83 c3 01             	add    $0x1,%ebx
 8049ae2:	eb 49                	jmp    8049b2d <submitr+0x378>
 8049ae4:	8d 42 e0             	lea    -0x20(%edx),%eax
 8049ae7:	3c 5f                	cmp    $0x5f,%al
 8049ae9:	76 05                	jbe    8049af0 <submitr+0x33b>
 8049aeb:	80 fa 09             	cmp    $0x9,%dl
 8049aee:	75 4d                	jne    8049b3d <submitr+0x388>
 8049af0:	0f b6 c2             	movzbl %dl,%eax
 8049af3:	89 44 24 08          	mov    %eax,0x8(%esp)
 8049af7:	c7 44 24 04 1e aa 04 	movl   $0x804aa1e,0x4(%esp)
 8049afe:	08 
 8049aff:	8d 85 cc 5f ff ff    	lea    -0xa034(%ebp),%eax
 8049b05:	89 04 24             	mov    %eax,(%esp)
 8049b08:	e8 53 ec ff ff       	call   8048760 <sprintf@plt>
 8049b0d:	0f b6 85 cc 5f ff ff 	movzbl -0xa034(%ebp),%eax
 8049b14:	88 03                	mov    %al,(%ebx)
 8049b16:	0f b6 85 cd 5f ff ff 	movzbl -0xa033(%ebp),%eax
 8049b1d:	88 43 01             	mov    %al,0x1(%ebx)
 8049b20:	0f b6 85 ce 5f ff ff 	movzbl -0xa032(%ebp),%eax
 8049b27:	88 43 02             	mov    %al,0x2(%ebx)
 8049b2a:	83 c3 03             	add    $0x3,%ebx
 8049b2d:	83 c6 01             	add    $0x1,%esi
 8049b30:	39 fe                	cmp    %edi,%esi
 8049b32:	0f 85 67 ff ff ff    	jne    8049a9f <submitr+0x2ea>
 8049b38:	e9 a8 03 00 00       	jmp    8049ee5 <submitr+0x730>
 8049b3d:	be 84 aa 04 08       	mov    $0x804aa84,%esi
 8049b42:	b9 10 00 00 00       	mov    $0x10,%ecx
 8049b47:	8b 7d 20             	mov    0x20(%ebp),%edi
 8049b4a:	f3 a5                	rep movsl %ds:(%esi),%es:(%edi)
 8049b4c:	0f b7 06             	movzwl (%esi),%eax
 8049b4f:	66 89 07             	mov    %ax,(%edi)
 8049b52:	0f b6 05 c6 aa 04 08 	movzbl 0x804aac6,%eax
 8049b59:	88 47 02             	mov    %al,0x2(%edi)
 8049b5c:	8b 95 c0 5f ff ff    	mov    -0xa040(%ebp),%edx
 8049b62:	89 14 24             	mov    %edx,(%esp)
 8049b65:	e8 26 ed ff ff       	call   8048890 <close@plt>
 8049b6a:	b8 ff ff ff ff       	mov    $0xffffffff,%eax
 8049b6f:	e9 66 03 00 00       	jmp    8049eda <submitr+0x725>
 8049b74:	01 c6                	add    %eax,%esi
 8049b76:	89 5c 24 08          	mov    %ebx,0x8(%esp)
 8049b7a:	89 74 24 04          	mov    %esi,0x4(%esp)
 8049b7e:	8b 8d c0 5f ff ff    	mov    -0xa040(%ebp),%ecx
 8049b84:	89 0c 24             	mov    %ecx,(%esp)
 8049b87:	e8 24 ec ff ff       	call   80487b0 <write@plt>
 8049b8c:	85 c0                	test   %eax,%eax
 8049b8e:	7f 0f                	jg     8049b9f <submitr+0x3ea>
 8049b90:	e8 bb eb ff ff       	call   8048750 <__errno_location@plt>
 8049b95:	83 38 04             	cmpl   $0x4,(%eax)
 8049b98:	75 18                	jne    8049bb2 <submitr+0x3fd>
 8049b9a:	b8 00 00 00 00       	mov    $0x0,%eax
 8049b9f:	29 c3                	sub    %eax,%ebx
 8049ba1:	8d b4 26 00 00 00 00 	lea    0x0(%esi,%eiz,1),%esi
 8049ba8:	75 ca                	jne    8049b74 <submitr+0x3bf>
 8049baa:	85 ff                	test   %edi,%edi
 8049bac:	8d 74 26 00          	lea    0x0(%esi,%eiz,1),%esi
 8049bb0:	79 67                	jns    8049c19 <submitr+0x464>
 8049bb2:	8b 45 20             	mov    0x20(%ebp),%eax
 8049bb5:	c7 00 45 72 72 6f    	movl   $0x6f727245,(%eax)
 8049bbb:	c7 40 04 72 3a 20 43 	movl   $0x43203a72,0x4(%eax)
 8049bc2:	c7 40 08 6c 69 65 6e 	movl   $0x6e65696c,0x8(%eax)
 8049bc9:	c7 40 0c 74 20 75 6e 	movl   $0x6e752074,0xc(%eax)
 8049bd0:	c7 40 10 61 62 6c 65 	movl   $0x656c6261,0x10(%eax)
 8049bd7:	c7 40 14 20 74 6f 20 	movl   $0x206f7420,0x14(%eax)
 8049bde:	c7 40 18 77 72 69 74 	movl   $0x74697277,0x18(%eax)
 8049be5:	c7 40 1c 65 20 74 6f 	movl   $0x6f742065,0x1c(%eax)
 8049bec:	c7 40 20 20 74 68 65 	movl   $0x65687420,0x20(%eax)
 8049bf3:	c7 40 24 20 73 65 72 	movl   $0x72657320,0x24(%eax)
 8049bfa:	c7 40 28 76 65 72 00 	movl   $0x726576,0x28(%eax)
 8049c01:	8b 95 c0 5f ff ff    	mov    -0xa040(%ebp),%edx
 8049c07:	89 14 24             	mov    %edx,(%esp)
 8049c0a:	e8 81 ec ff ff       	call   8048890 <close@plt>
 8049c0f:	b8 ff ff ff ff       	mov    $0xffffffff,%eax
 8049c14:	e9 c1 02 00 00       	jmp    8049eda <submitr+0x725>
 8049c19:	8b 8d c0 5f ff ff    	mov    -0xa040(%ebp),%ecx
 8049c1f:	89 8d d8 df ff ff    	mov    %ecx,-0x2028(%ebp)
 8049c25:	c7 85 dc df ff ff 00 	movl   $0x0,-0x2024(%ebp)
 8049c2c:	00 00 00 
 8049c2f:	8d 85 d8 df ff ff    	lea    -0x2028(%ebp),%eax
 8049c35:	8d 95 e4 df ff ff    	lea    -0x201c(%ebp),%edx
 8049c3b:	89 95 e0 df ff ff    	mov    %edx,-0x2020(%ebp)
 8049c41:	8d 95 d8 bf ff ff    	lea    -0x4028(%ebp),%edx
 8049c47:	b9 00 20 00 00       	mov    $0x2000,%ecx
 8049c4c:	e8 8c fa ff ff       	call   80496dd <rio_readlineb>
 8049c51:	85 c0                	test   %eax,%eax
 8049c53:	7f 7b                	jg     8049cd0 <submitr+0x51b>
 8049c55:	8b 45 20             	mov    0x20(%ebp),%eax
 8049c58:	c7 00 45 72 72 6f    	movl   $0x6f727245,(%eax)
 8049c5e:	c7 40 04 72 3a 20 43 	movl   $0x43203a72,0x4(%eax)
 8049c65:	c7 40 08 6c 69 65 6e 	movl   $0x6e65696c,0x8(%eax)
 8049c6c:	c7 40 0c 74 20 75 6e 	movl   $0x6e752074,0xc(%eax)
 8049c73:	c7 40 10 61 62 6c 65 	movl   $0x656c6261,0x10(%eax)
 8049c7a:	c7 40 14 20 74 6f 20 	movl   $0x206f7420,0x14(%eax)
 8049c81:	c7 40 18 72 65 61 64 	movl   $0x64616572,0x18(%eax)
 8049c88:	c7 40 1c 20 66 69 72 	movl   $0x72696620,0x1c(%eax)
 8049c8f:	c7 40 20 73 74 20 68 	movl   $0x68207473,0x20(%eax)
 8049c96:	c7 40 24 65 61 64 65 	movl   $0x65646165,0x24(%eax)
 8049c9d:	c7 40 28 72 20 66 72 	movl   $0x72662072,0x28(%eax)
 8049ca4:	c7 40 2c 6f 6d 20 73 	movl   $0x73206d6f,0x2c(%eax)
 8049cab:	c7 40 30 65 72 76 65 	movl   $0x65767265,0x30(%eax)
 8049cb2:	66 c7 40 34 72 00    	movw   $0x72,0x34(%eax)
 8049cb8:	8b 95 c0 5f ff ff    	mov    -0xa040(%ebp),%edx
 8049cbe:	89 14 24             	mov    %edx,(%esp)
 8049cc1:	e8 ca eb ff ff       	call   8048890 <close@plt>
 8049cc6:	b8 ff ff ff ff       	mov    $0xffffffff,%eax
 8049ccb:	e9 0a 02 00 00       	jmp    8049eda <submitr+0x725>
 8049cd0:	8d 85 d4 5f ff ff    	lea    -0xa02c(%ebp),%eax
 8049cd6:	89 44 24 10          	mov    %eax,0x10(%esp)
 8049cda:	8d 85 d4 7f ff ff    	lea    -0x802c(%ebp),%eax
 8049ce0:	89 44 24 0c          	mov    %eax,0xc(%esp)
 8049ce4:	8d 85 d8 7f ff ff    	lea    -0x8028(%ebp),%eax
 8049cea:	89 44 24 08          	mov    %eax,0x8(%esp)
 8049cee:	c7 44 24 04 25 aa 04 	movl   $0x804aa25,0x4(%esp)
 8049cf5:	08 
 8049cf6:	8d 85 d8 bf ff ff    	lea    -0x4028(%ebp),%eax
 8049cfc:	89 04 24             	mov    %eax,(%esp)
 8049cff:	e8 dc eb ff ff       	call   80488e0 <sscanf@plt>
 8049d04:	8b 95 d4 7f ff ff    	mov    -0x802c(%ebp),%edx
 8049d0a:	8d 9d d8 bf ff ff    	lea    -0x4028(%ebp),%ebx
 8049d10:	8d b5 d8 df ff ff    	lea    -0x2028(%ebp),%esi
 8049d16:	81 fa c8 00 00 00    	cmp    $0xc8,%edx
 8049d1c:	0f 84 bd 00 00 00    	je     8049ddf <submitr+0x62a>
 8049d22:	8d 85 d4 5f ff ff    	lea    -0xa02c(%ebp),%eax
 8049d28:	89 44 24 0c          	mov    %eax,0xc(%esp)
 8049d2c:	89 54 24 08          	mov    %edx,0x8(%esp)
 8049d30:	c7 44 24 04 c8 aa 04 	movl   $0x804aac8,0x4(%esp)
 8049d37:	08 
 8049d38:	8b 4d 20             	mov    0x20(%ebp),%ecx
 8049d3b:	89 0c 24             	mov    %ecx,(%esp)
 8049d3e:	e8 1d ea ff ff       	call   8048760 <sprintf@plt>
 8049d43:	8b 85 c0 5f ff ff    	mov    -0xa040(%ebp),%eax
 8049d49:	89 04 24             	mov    %eax,(%esp)
 8049d4c:	e8 3f eb ff ff       	call   8048890 <close@plt>
 8049d51:	b8 ff ff ff ff       	mov    $0xffffffff,%eax
 8049d56:	e9 7f 01 00 00       	jmp    8049eda <submitr+0x725>
 8049d5b:	b9 00 20 00 00       	mov    $0x2000,%ecx
 8049d60:	89 da                	mov    %ebx,%edx
 8049d62:	89 f0                	mov    %esi,%eax
 8049d64:	e8 74 f9 ff ff       	call   80496dd <rio_readlineb>
 8049d69:	85 c0                	test   %eax,%eax
 8049d6b:	7f 72                	jg     8049ddf <submitr+0x62a>
 8049d6d:	8b 55 20             	mov    0x20(%ebp),%edx
 8049d70:	c7 02 45 72 72 6f    	movl   $0x6f727245,(%edx)
 8049d76:	c7 42 04 72 3a 20 43 	movl   $0x43203a72,0x4(%edx)
 8049d7d:	c7 42 08 6c 69 65 6e 	movl   $0x6e65696c,0x8(%edx)
 8049d84:	c7 42 0c 74 20 75 6e 	movl   $0x6e752074,0xc(%edx)
 8049d8b:	c7 42 10 61 62 6c 65 	movl   $0x656c6261,0x10(%edx)
 8049d92:	c7 42 14 20 74 6f 20 	movl   $0x206f7420,0x14(%edx)
 8049d99:	c7 42 18 72 65 61 64 	movl   $0x64616572,0x18(%edx)
 8049da0:	c7 42 1c 20 68 65 61 	movl   $0x61656820,0x1c(%edx)
 8049da7:	c7 42 20 64 65 72 73 	movl   $0x73726564,0x20(%edx)
 8049dae:	c7 42 24 20 66 72 6f 	movl   $0x6f726620,0x24(%edx)
 8049db5:	c7 42 28 6d 20 73 65 	movl   $0x6573206d,0x28(%edx)
 8049dbc:	c7 42 2c 72 76 65 72 	movl   $0x72657672,0x2c(%edx)
 8049dc3:	c6 42 30 00          	movb   $0x0,0x30(%edx)
 8049dc7:	8b 8d c0 5f ff ff    	mov    -0xa040(%ebp),%ecx
 8049dcd:	89 0c 24             	mov    %ecx,(%esp)
 8049dd0:	e8 bb ea ff ff       	call   8048890 <close@plt>
 8049dd5:	b8 ff ff ff ff       	mov    $0xffffffff,%eax
 8049dda:	e9 fb 00 00 00       	jmp    8049eda <submitr+0x725>
 8049ddf:	80 3b 0d             	cmpb   $0xd,(%ebx)
 8049de2:	0f 85 73 ff ff ff    	jne    8049d5b <submitr+0x5a6>
 8049de8:	80 7b 01 0a          	cmpb   $0xa,0x1(%ebx)
 8049dec:	8d 74 26 00          	lea    0x0(%esi,%eiz,1),%esi
 8049df0:	0f 85 65 ff ff ff    	jne    8049d5b <submitr+0x5a6>
 8049df6:	80 7b 02 00          	cmpb   $0x0,0x2(%ebx)
 8049dfa:	8d b6 00 00 00 00    	lea    0x0(%esi),%esi
 8049e00:	0f 85 55 ff ff ff    	jne    8049d5b <submitr+0x5a6>
 8049e06:	8d 95 d8 bf ff ff    	lea    -0x4028(%ebp),%edx
 8049e0c:	8d 85 d8 df ff ff    	lea    -0x2028(%ebp),%eax
 8049e12:	b9 00 20 00 00       	mov    $0x2000,%ecx
 8049e17:	e8 c1 f8 ff ff       	call   80496dd <rio_readlineb>
 8049e1c:	85 c0                	test   %eax,%eax
 8049e1e:	7f 79                	jg     8049e99 <submitr+0x6e4>
 8049e20:	8b 45 20             	mov    0x20(%ebp),%eax
 8049e23:	c7 00 45 72 72 6f    	movl   $0x6f727245,(%eax)
 8049e29:	c7 40 04 72 3a 20 43 	movl   $0x43203a72,0x4(%eax)
 8049e30:	c7 40 08 6c 69 65 6e 	movl   $0x6e65696c,0x8(%eax)
 8049e37:	c7 40 0c 74 20 75 6e 	movl   $0x6e752074,0xc(%eax)
 8049e3e:	c7 40 10 61 62 6c 65 	movl   $0x656c6261,0x10(%eax)
 8049e45:	c7 40 14 20 74 6f 20 	movl   $0x206f7420,0x14(%eax)
 8049e4c:	c7 40 18 72 65 61 64 	movl   $0x64616572,0x18(%eax)
 8049e53:	c7 40 1c 20 73 74 61 	movl   $0x61747320,0x1c(%eax)
 8049e5a:	c7 40 20 74 75 73 20 	movl   $0x20737574,0x20(%eax)
 8049e61:	c7 40 24 6d 65 73 73 	movl   $0x7373656d,0x24(%eax)
 8049e68:	c7 40 28 61 67 65 20 	movl   $0x20656761,0x28(%eax)
 8049e6f:	c7 40 2c 66 72 6f 6d 	movl   $0x6d6f7266,0x2c(%eax)
 8049e76:	c7 40 30 20 73 65 72 	movl   $0x72657320,0x30(%eax)
 8049e7d:	c7 40 34 76 65 72 00 	movl   $0x726576,0x34(%eax)
 8049e84:	8b 95 c0 5f ff ff    	mov    -0xa040(%ebp),%edx
 8049e8a:	89 14 24             	mov    %edx,(%esp)
 8049e8d:	e8 fe e9 ff ff       	call   8048890 <close@plt>
 8049e92:	b8 ff ff ff ff       	mov    $0xffffffff,%eax
 8049e97:	eb 41                	jmp    8049eda <submitr+0x725>
 8049e99:	8d 85 d8 bf ff ff    	lea    -0x4028(%ebp),%eax
 8049e9f:	89 44 24 04          	mov    %eax,0x4(%esp)
 8049ea3:	8b 4d 20             	mov    0x20(%ebp),%ecx
 8049ea6:	89 0c 24             	mov    %ecx,(%esp)
 8049ea9:	e8 b2 e9 ff ff       	call   8048860 <strcpy@plt>
 8049eae:	8b 85 c0 5f ff ff    	mov    -0xa040(%ebp),%eax
 8049eb4:	89 04 24             	mov    %eax,(%esp)
 8049eb7:	e8 d4 e9 ff ff       	call   8048890 <close@plt>
 8049ebc:	8b 55 20             	mov    0x20(%ebp),%edx
 8049ebf:	80 3a 4f             	cmpb   $0x4f,(%edx)
 8049ec2:	75 11                	jne    8049ed5 <submitr+0x720>
 8049ec4:	80 7a 01 4b          	cmpb   $0x4b,0x1(%edx)
 8049ec8:	75 0b                	jne    8049ed5 <submitr+0x720>
 8049eca:	b8 00 00 00 00       	mov    $0x0,%eax
 8049ecf:	80 7a 02 00          	cmpb   $0x0,0x2(%edx)
 8049ed3:	74 05                	je     8049eda <submitr+0x725>
 8049ed5:	b8 ff ff ff ff       	mov    $0xffffffff,%eax
 8049eda:	81 c4 5c a0 00 00    	add    $0xa05c,%esp
 8049ee0:	5b                   	pop    %ebx
 8049ee1:	5e                   	pop    %esi
 8049ee2:	5f                   	pop    %edi
 8049ee3:	5d                   	pop    %ebp
 8049ee4:	c3                   	ret    
 8049ee5:	8d 85 d8 9f ff ff    	lea    -0x6028(%ebp),%eax
 8049eeb:	89 44 24 14          	mov    %eax,0x14(%esp)
 8049eef:	8b 55 18             	mov    0x18(%ebp),%edx
 8049ef2:	89 54 24 10          	mov    %edx,0x10(%esp)
 8049ef6:	8b 4d 14             	mov    0x14(%ebp),%ecx
 8049ef9:	89 4c 24 0c          	mov    %ecx,0xc(%esp)
 8049efd:	8b 45 10             	mov    0x10(%ebp),%eax
 8049f00:	89 44 24 08          	mov    %eax,0x8(%esp)
 8049f04:	c7 44 24 04 f8 aa 04 	movl   $0x804aaf8,0x4(%esp)
 8049f0b:	08 
 8049f0c:	8d bd d8 bf ff ff    	lea    -0x4028(%ebp),%edi
 8049f12:	89 3c 24             	mov    %edi,(%esp)
 8049f15:	e8 46 e8 ff ff       	call   8048760 <sprintf@plt>
 8049f1a:	b8 00 00 00 00       	mov    $0x0,%eax
 8049f1f:	b9 ff ff ff ff       	mov    $0xffffffff,%ecx
 8049f24:	f2 ae                	repnz scas %es:(%edi),%al
 8049f26:	f7 d1                	not    %ecx
 8049f28:	89 cf                	mov    %ecx,%edi
 8049f2a:	83 ef 01             	sub    $0x1,%edi
 8049f2d:	0f 84 e6 fc ff ff    	je     8049c19 <submitr+0x464>
 8049f33:	89 fb                	mov    %edi,%ebx
 8049f35:	8d b5 d8 bf ff ff    	lea    -0x4028(%ebp),%esi
 8049f3b:	e9 36 fc ff ff       	jmp    8049b76 <submitr+0x3c1>

08049f40 <driver_post>:
 8049f40:	55                   	push   %ebp
 8049f41:	89 e5                	mov    %esp,%ebp
 8049f43:	53                   	push   %ebx
 8049f44:	83 ec 24             	sub    $0x24,%esp
 8049f47:	8b 45 08             	mov    0x8(%ebp),%eax
 8049f4a:	8b 5d 14             	mov    0x14(%ebp),%ebx
 8049f4d:	83 7d 10 00          	cmpl   $0x0,0x10(%ebp)
 8049f51:	74 23                	je     8049f76 <driver_post+0x36>
 8049f53:	8b 45 0c             	mov    0xc(%ebp),%eax
 8049f56:	89 44 24 04          	mov    %eax,0x4(%esp)
 8049f5a:	c7 04 24 36 aa 04 08 	movl   $0x804aa36,(%esp)
 8049f61:	e8 0a e9 ff ff       	call   8048870 <printf@plt>
 8049f66:	66 c7 03 4f 4b       	movw   $0x4b4f,(%ebx)
 8049f6b:	c6 43 02 00          	movb   $0x0,0x2(%ebx)
 8049f6f:	b8 00 00 00 00       	mov    $0x0,%eax
 8049f74:	eb 4c                	jmp    8049fc2 <driver_post+0x82>
 8049f76:	85 c0                	test   %eax,%eax
 8049f78:	74 3a                	je     8049fb4 <driver_post+0x74>
 8049f7a:	80 38 00             	cmpb   $0x0,(%eax)
 8049f7d:	74 35                	je     8049fb4 <driver_post+0x74>
 8049f7f:	89 5c 24 18          	mov    %ebx,0x18(%esp)
 8049f83:	8b 55 0c             	mov    0xc(%ebp),%edx
 8049f86:	89 54 24 14          	mov    %edx,0x14(%esp)
 8049f8a:	c7 44 24 10 4d aa 04 	movl   $0x804aa4d,0x10(%esp)
 8049f91:	08 
 8049f92:	89 44 24 0c          	mov    %eax,0xc(%esp)
 8049f96:	c7 44 24 08 56 aa 04 	movl   $0x804aa56,0x8(%esp)
 8049f9d:	08 
 8049f9e:	c7 44 24 04 6e 3b 00 	movl   $0x3b6e,0x4(%esp)
 8049fa5:	00 
 8049fa6:	c7 04 24 09 aa 04 08 	movl   $0x804aa09,(%esp)
 8049fad:	e8 03 f8 ff ff       	call   80497b5 <submitr>
 8049fb2:	eb 0e                	jmp    8049fc2 <driver_post+0x82>
 8049fb4:	66 c7 03 4f 4b       	movw   $0x4b4f,(%ebx)
 8049fb9:	c6 43 02 00          	movb   $0x0,0x2(%ebx)
 8049fbd:	b8 00 00 00 00       	mov    $0x0,%eax
 8049fc2:	83 c4 24             	add    $0x24,%esp
 8049fc5:	5b                   	pop    %ebx
 8049fc6:	5d                   	pop    %ebp
 8049fc7:	c3                   	ret    

08049fc8 <sigalrm_handler>:
 8049fc8:	55                   	push   %ebp
 8049fc9:	89 e5                	mov    %esp,%ebp
 8049fcb:	83 ec 18             	sub    $0x18,%esp
 8049fce:	c7 44 24 08 00 00 00 	movl   $0x0,0x8(%esp)
 8049fd5:	00 
 8049fd6:	c7 44 24 04 44 ab 04 	movl   $0x804ab44,0x4(%esp)
 8049fdd:	08 
 8049fde:	a1 c0 b8 04 08       	mov    0x804b8c0,%eax
 8049fe3:	89 04 24             	mov    %eax,(%esp)
 8049fe6:	e8 b5 e8 ff ff       	call   80488a0 <fprintf@plt>
 8049feb:	c7 04 24 01 00 00 00 	movl   $0x1,(%esp)
 8049ff2:	e8 09 e9 ff ff       	call   8048900 <exit@plt>
 8049ff7:	90                   	nop
 8049ff8:	90                   	nop
 8049ff9:	90                   	nop
 8049ffa:	90                   	nop
 8049ffb:	90                   	nop
 8049ffc:	90                   	nop
 8049ffd:	90                   	nop
 8049ffe:	90                   	nop
 8049fff:	90                   	nop

0804a000 <__libc_csu_fini>:
 804a000:	55                   	push   %ebp
 804a001:	89 e5                	mov    %esp,%ebp
 804a003:	5d                   	pop    %ebp
 804a004:	c3                   	ret    
 804a005:	8d 74 26 00          	lea    0x0(%esi,%eiz,1),%esi
 804a009:	8d bc 27 00 00 00 00 	lea    0x0(%edi,%eiz,1),%edi

0804a010 <__libc_csu_init>:
 804a010:	55                   	push   %ebp
 804a011:	89 e5                	mov    %esp,%ebp
 804a013:	57                   	push   %edi
 804a014:	56                   	push   %esi
 804a015:	53                   	push   %ebx
 804a016:	e8 4f 00 00 00       	call   804a06a <__i686.get_pc_thunk.bx>
 804a01b:	81 c3 cd 10 00 00    	add    $0x10cd,%ebx
 804a021:	83 ec 0c             	sub    $0xc,%esp
 804a024:	e8 e7 e6 ff ff       	call   8048710 <_init>
 804a029:	8d bb 18 ff ff ff    	lea    -0xe8(%ebx),%edi
 804a02f:	8d 83 18 ff ff ff    	lea    -0xe8(%ebx),%eax
 804a035:	29 c7                	sub    %eax,%edi
 804a037:	c1 ff 02             	sar    $0x2,%edi
 804a03a:	85 ff                	test   %edi,%edi
 804a03c:	74 24                	je     804a062 <__libc_csu_init+0x52>
 804a03e:	31 f6                	xor    %esi,%esi
 804a040:	8b 45 10             	mov    0x10(%ebp),%eax
 804a043:	89 44 24 08          	mov    %eax,0x8(%esp)
 804a047:	8b 45 0c             	mov    0xc(%ebp),%eax
 804a04a:	89 44 24 04          	mov    %eax,0x4(%esp)
 804a04e:	8b 45 08             	mov    0x8(%ebp),%eax
 804a051:	89 04 24             	mov    %eax,(%esp)
 804a054:	ff 94 b3 18 ff ff ff 	call   *-0xe8(%ebx,%esi,4)
 804a05b:	83 c6 01             	add    $0x1,%esi
 804a05e:	39 fe                	cmp    %edi,%esi
 804a060:	72 de                	jb     804a040 <__libc_csu_init+0x30>
 804a062:	83 c4 0c             	add    $0xc,%esp
 804a065:	5b                   	pop    %ebx
 804a066:	5e                   	pop    %esi
 804a067:	5f                   	pop    %edi
 804a068:	5d                   	pop    %ebp
 804a069:	c3                   	ret    

0804a06a <__i686.get_pc_thunk.bx>:
 804a06a:	8b 1c 24             	mov    (%esp),%ebx
 804a06d:	c3                   	ret    
 804a06e:	90                   	nop
 804a06f:	90                   	nop

0804a070 <__do_global_ctors_aux>:
 804a070:	55                   	push   %ebp
 804a071:	89 e5                	mov    %esp,%ebp
 804a073:	53                   	push   %ebx
 804a074:	83 ec 04             	sub    $0x4,%esp
 804a077:	a1 00 b0 04 08       	mov    0x804b000,%eax
 804a07c:	83 f8 ff             	cmp    $0xffffffff,%eax
 804a07f:	74 13                	je     804a094 <__do_global_ctors_aux+0x24>
 804a081:	bb 00 b0 04 08       	mov    $0x804b000,%ebx
 804a086:	66 90                	xchg   %ax,%ax
 804a088:	83 eb 04             	sub    $0x4,%ebx
 804a08b:	ff d0                	call   *%eax
 804a08d:	8b 03                	mov    (%ebx),%eax
 804a08f:	83 f8 ff             	cmp    $0xffffffff,%eax
 804a092:	75 f4                	jne    804a088 <__do_global_ctors_aux+0x18>
 804a094:	83 c4 04             	add    $0x4,%esp
 804a097:	5b                   	pop    %ebx
 804a098:	5d                   	pop    %ebp
 804a099:	c3                   	ret    
 804a09a:	90                   	nop
 804a09b:	90                   	nop

Disassembly of section .fini:

0804a09c <_fini>:
 804a09c:	55                   	push   %ebp
 804a09d:	89 e5                	mov    %esp,%ebp
 804a09f:	53                   	push   %ebx
 804a0a0:	83 ec 04             	sub    $0x4,%esp
 804a0a3:	e8 00 00 00 00       	call   804a0a8 <_fini+0xc>
 804a0a8:	5b                   	pop    %ebx
 804a0a9:	81 c3 40 10 00 00    	add    $0x1040,%ebx
 804a0af:	e8 8c e8 ff ff       	call   8048940 <__do_global_dtors_aux>
 804a0b4:	59                   	pop    %ecx
 804a0b5:	5b                   	pop    %ebx
 804a0b6:	c9                   	leave  
 804a0b7:	c3                   	ret    
